	.text
	.file	"../src/extensions/cat9555.xc"
                                        # Start of file scope inline assembly
	.inline_definition delay_seconds
	.inline_definition delay_milliseconds
	.inline_definition delay_microseconds
	.set usage.anon.0,0
	.set usage.anon.1,0
	.set usage.anon.2,0
	.globwrite receive_cat9555_io_from_usb_io_core,exio_value,"../src/extensions/cat9555.xc:45:46: note: object used here\n        case chan_with_usb_audio_io_core  :> exio_value:\n                                             ^~~~~~~~~~"
	.globwrite cat9555_init,i2cPorts,"../src/extensions/cat9555.xc:32:67: note: object used here\n    if (0 == i2c_master_read_reg(CAT9555_I2C_ADDR, 0x00, data, 1, i2cPorts/*cat9555_i2cPorts*/)) {\n                                                                  ^~~~~~~~"
	.call send_cat9555_io_to_usb_audio_core,cat9555_init
	.call cat9555_init,i2c_master_read_reg
	.call usage.anon.2,delay_ticks_longlong
	.call usage.anon.1,delay_ticks_longlong
	.call usage.anon.0,delay_ticks_longlong
	.set cat9555_init.locnoside, 0
	.set receive_cat9555_io_from_usb_io_core.locnoside, 0
	.set send_cat9555_io_to_usb_audio_core.locnoside, 0
	.set cat9555_init.locnoglobalaccess, 0
	.set receive_cat9555_io_from_usb_io_core.locnoglobalaccess, 0
	.globpassesref i2c_master_read_reg, i2cPorts,"../src/extensions/cat9555.xc:32:14: error: call to `i2c_master_read_reg\' in `cat9555_init\' makes alias of global \'i2cPorts\'\n    if (0 == i2c_master_read_reg(CAT9555_I2C_ADDR, 0x00, data, 1, i2cPorts/*cat9555_i2cPorts*/)) {\n             ^~~~~~~~~~~~~~~~~~~~~~~~~~~~~~~~~~~~~~~~~~~~~~~~~~~~~~~~~~~~~~~~~~~~~~~~~~~~~~~~~~"

                                        # End of file scope inline assembly
	.text
	.globl	cat9555_init
	.align	4
	.type	cat9555_init,@function
	.cc_top cat9555_init.function,cat9555_init
cat9555_init:                           # @cat9555_init
.Lfunc_begin0:
	.loc	1 29 0                  # ../src/extensions/cat9555.xc:29:0
	.cfi_startproc
	.issue_mode dual
# BB#0:                                 # %allocas
.Lxtalabel0:
	{
		nop
		dualentsp 6
	}
.Ltmp0:
	.cfi_def_cfa_offset 24
.Ltmp1:
	.cfi_offset 15, 0
	std r5, r4, sp[2]               # 4-byte Folded Spill
.Ltmp2:
	.cfi_offset 4, -8
.Ltmp3:
	.cfi_offset 5, -4
	{
		ldaw r5, sp[3]
		ldc r4, 0
	}
	.loc	1 30 0 prologue_end     # ../src/extensions/cat9555.xc:30:0
.Ltmp4:
	st8 r4, r5[r4]
	{
		mkmsk r3, 1
		nop
	}
	{
		nop
		stw r3, sp[2]
	}
	.loc	1 32 5                  # ../src/extensions/cat9555.xc:32:5
	ldaw r0, dp[i2cPorts]
	{
		ldc r0, 32
		stw r0, sp[1]
	}
	{
		mov r1, r4
		mov r2, r5
	}
.Lxta.call_labels0:
	bl i2c_master_read_reg
	bf r0, .LBB0_2
.Ltmp5:
# BB#1:
	{
		nop
		ld8u r4, r5[r4]
	}
.LBB0_2:                                # %allocas
.Lxtalabel1:
	{
		zext r4, 8
		nop
	}
	{
		mov r0, r4
		nop
	}
	ldd r5, r4, sp[2]               # 4-byte Folded Reload
	{
		nop
		retsp 6
	}
	# RETURN_REG_HOLDER
	.cc_bottom cat9555_init.function
	.set	cat9555_init.nstackwords,(i2c_master_read_reg.nstackwords + 6)
	.globl	cat9555_init.nstackwords
	.set	cat9555_init.maxcores,i2c_master_read_reg.maxcores $M 1
	.globl	cat9555_init.maxcores
	.set	cat9555_init.maxtimers,i2c_master_read_reg.maxtimers $M 0
	.globl	cat9555_init.maxtimers
	.set	cat9555_init.maxchanends,i2c_master_read_reg.maxchanends $M 0
	.globl	cat9555_init.maxchanends
.Ltmp6:
	.size	cat9555_init, .Ltmp6-cat9555_init
.Lfunc_end0:
	.cfi_endproc

	.globl	send_cat9555_io_to_usb_audio_core
	.align	4
	.type	send_cat9555_io_to_usb_audio_core,@function
	.cc_top send_cat9555_io_to_usb_audio_core.function,send_cat9555_io_to_usb_audio_core
send_cat9555_io_to_usb_audio_core:      # @send_cat9555_io_to_usb_audio_core
.Lfunc_begin1:
	.loc	1 51 0                  # ../src/extensions/cat9555.xc:51:0
	.cfi_startproc
	.issue_mode dual
# BB#0:                                 # %allocas
.Lxtalabel2:
	{
		nop
		dualentsp 8
	}
.Ltmp7:
	.cfi_def_cfa_offset 32
.Ltmp8:
	.cfi_offset 15, 0
	std r5, r4, sp[2]               # 4-byte Folded Spill
.Ltmp9:
	.cfi_offset 4, -16
.Ltmp10:
	.cfi_offset 5, -12
.Ltmp11:
	.cfi_offset 6, -8
	#DEBUG_VALUE: send_cat9555_io_to_usb_audio_core:chan_with_usb_audio_core <- R0
.Ltmp12:
	#DEBUG_VALUE: cat9555_io_value <- 0
	#DEBUG_VALUE: send_cat9555_io_to_usb_audio_core:chan_with_usb_audio_core <- R4
	{
		mov r4, r0
		stw r6, sp[6]
	}
.Ltmp13:
	#DEBUG_VALUE: data <- [R6+0]
	{
		ldaw r6, sp[3]
		ldc r5, 0
	}
.Ltmp14:
	.loc	1 30 0 prologue_end     # ../src/extensions/cat9555.xc:30:0
	st8 r5, r6[r5]
	{
		mkmsk r3, 1
		nop
	}
	{
		nop
		stw r3, sp[2]
	}
	.loc	1 32 5                  # ../src/extensions/cat9555.xc:32:5
	ldaw r0, dp[i2cPorts]
	{
		ldc r0, 32
		stw r0, sp[1]
	}
	{
		mov r1, r5
		mov r2, r6
	}
.Lxta.call_labels1:
	bl i2c_master_read_reg
	bf r0, .LBB1_2
.Ltmp15:
# BB#1:
	#DEBUG_VALUE: send_cat9555_io_to_usb_audio_core:chan_with_usb_audio_core <- R4
	#DEBUG_VALUE: cat9555_io_value <- 0
	{
		nop
		ld8u r5, r6[r5]
	}
.Ltmp16:
.LBB1_2:                                # %allocas
.Lxtalabel3:
	#DEBUG_VALUE: send_cat9555_io_to_usb_audio_core:chan_with_usb_audio_core <- R4
	#DEBUG_VALUE: cat9555_io_value <- 0
	.loc	1 54 49                 # ../src/extensions/cat9555.xc:54:49
.Lxta.endpoint_labels0:
	{
		outt res[r4], r5
		ldw r6, sp[6]
	}
	ldd r5, r4, sp[2]               # 4-byte Folded Reload
.Ltmp17:
	{
		nop
		retsp 8
	}
	# RETURN_REG_HOLDER
.Ltmp18:
	.cc_bottom send_cat9555_io_to_usb_audio_core.function
	.set	send_cat9555_io_to_usb_audio_core.nstackwords,(i2c_master_read_reg.nstackwords + 8)
	.globl	send_cat9555_io_to_usb_audio_core.nstackwords
	.set	send_cat9555_io_to_usb_audio_core.maxcores,i2c_master_read_reg.maxcores $M 1
	.globl	send_cat9555_io_to_usb_audio_core.maxcores
	.set	send_cat9555_io_to_usb_audio_core.maxtimers,i2c_master_read_reg.maxtimers $M 0
	.globl	send_cat9555_io_to_usb_audio_core.maxtimers
	.set	send_cat9555_io_to_usb_audio_core.maxchanends,i2c_master_read_reg.maxchanends $M 0
	.globl	send_cat9555_io_to_usb_audio_core.maxchanends
.Ltmp19:
	.size	send_cat9555_io_to_usb_audio_core, .Ltmp19-send_cat9555_io_to_usb_audio_core
.Lfunc_end1:
	.cfi_endproc

	.globl	receive_cat9555_io_from_usb_io_core
	.align	4
	.type	receive_cat9555_io_from_usb_io_core,@function
	.cc_top receive_cat9555_io_from_usb_io_core.function,receive_cat9555_io_from_usb_io_core
receive_cat9555_io_from_usb_io_core:    # @receive_cat9555_io_from_usb_io_core
.Lfunc_begin2:
	.loc	1 42 0                  # ../src/extensions/cat9555.xc:42:0
	.cfi_startproc
	.issue_mode dual
# BB#0:                                 # %allocas
.Lxtalabel4:
	#DEBUG_VALUE: receive_cat9555_io_from_usb_io_core:chan_with_usb_audio_io_core <- R0
	{
		clre
		dualentsp 0
	}
	ldap r11, .Ltmp20
	.loc	1 44 5 prologue_end     # ../src/extensions/cat9555.xc:44:5
.Ltmp21:
	{
		setv res[r0], r11
		nop
	}
	.loc	1 44 5                  # ../src/extensions/cat9555.xc:44:5
	{
		eeu res[r0]
		nop
	}
	.loc	1 46 0                  # ../src/extensions/cat9555.xc:46:0

	.xtabranch .LBB2_1
	{
		waiteu
		nop
	}
.Ltmp22:
.Ltmp20:                                # Block address taken
.LBB2_1:                                # %selectcase
.Lxtalabel5:
	#DEBUG_VALUE: receive_cat9555_io_from_usb_io_core:chan_with_usb_audio_io_core <- R0
	.loc	1 45 0                  # ../src/extensions/cat9555.xc:45:0
.Lxta.endpoint_labels1:
	{
		int r0, res[r0]
		ldc r1, 0
	}
.Ltmp23:
	.loc	1 45 0                  # ../src/extensions/cat9555.xc:45:0
	ldaw r2, dp[exio_value]
	st8 r0, r2[r1]
	{
		nop
		retsp 0
	}
	# RETURN_REG_HOLDER
.Ltmp24:
	.cc_bottom receive_cat9555_io_from_usb_io_core.function
	.set	receive_cat9555_io_from_usb_io_core.nstackwords,0
	.globl	receive_cat9555_io_from_usb_io_core.nstackwords
	.set	receive_cat9555_io_from_usb_io_core.maxcores,1
	.globl	receive_cat9555_io_from_usb_io_core.maxcores
	.set	receive_cat9555_io_from_usb_io_core.maxtimers,0
	.globl	receive_cat9555_io_from_usb_io_core.maxtimers
	.set	receive_cat9555_io_from_usb_io_core.maxchanends,0
	.globl	receive_cat9555_io_from_usb_io_core.maxchanends
.Ltmp25:
	.size	receive_cat9555_io_from_usb_io_core, .Ltmp25-receive_cat9555_io_from_usb_io_core
.Lfunc_end2:
	.cfi_endproc

	.section	.dp.bss.4,"awd",@nobits
	.cc_top exio_value.data,exio_value
	.globl	exio_value
	.align	4
	.type	exio_value,@object
	.size	exio_value, 1
exio_value:
	.byte	0                       # 0x0
	.space	3
	.cc_bottom exio_value.data
.Ldebug_end0:
	.text
.Ldebug_end1:
	.file	2 "/Applications/XMOS_XTC_15.3.1/target/include/timer.h"
	.section	.xtacalltable,"",@progbits
.Lentries_start0:
	.long	.Lentries_end1-.Lentries_start0
	.long	0
	.ascii	"/Users/cwu/Desktop/Audio_Sound/app_usb_aud_xk_216_mc/.build_2i4o4xxxxx"
	.byte	0
.cc_top cc_0,.Lxta.call_labels0
	.ascii	"../src/extensions/cat9555.xc"
	.byte	0
	.long	32
	.long	.Lxta.call_labels0
.cc_bottom cc_0
.cc_top cc_1,.Lxta.call_labels1
	.ascii	"../src/extensions/cat9555.xc"
	.byte	0
	.long	32
	.long	.Lxta.call_labels1
.cc_bottom cc_1
.Lentries_end1:
	.section	.xtaendpointtable,"",@progbits
.Lentries_start2:
	.long	.Lentries_end3-.Lentries_start2
	.long	0
	.ascii	"/Users/cwu/Desktop/Audio_Sound/app_usb_aud_xk_216_mc/.build_2i4o4xxxxx"
	.byte	0
.cc_top cc_2,.Lxta.endpoint_labels1
	.ascii	"../src/extensions/cat9555.xc"
	.byte	0
	.long	44
	.long	.Lxta.endpoint_labels1
.cc_bottom cc_2
.cc_top cc_3,.Lxta.endpoint_labels0
	.ascii	"../src/extensions/cat9555.xc"
	.byte	0
	.long	54
	.long	.Lxta.endpoint_labels0
.cc_bottom cc_3
.Lentries_end3:
	.section	.xtalabeltable,"",@progbits
.Lentries_start4:
	.long	.Lentries_end5-.Lentries_start4
	.long	0
	.ascii	"/Users/cwu/Desktop/Audio_Sound/app_usb_aud_xk_216_mc/.build_2i4o4xxxxx"
	.byte	0
.cc_top cc_4,.Lxtalabel2
	.ascii	"../src/extensions/cat9555.xc"
	.byte	0
	.long	29
	.long	30
	.long	.Lxtalabel2
.cc_bottom cc_4
.cc_top cc_5,.Lxtalabel3
	.ascii	"../src/extensions/cat9555.xc"
	.byte	0
	.long	29
	.long	30
	.long	.Lxtalabel3
.cc_bottom cc_5
.cc_top cc_6,.Lxtalabel0
	.ascii	"../src/extensions/cat9555.xc"
	.byte	0
	.long	29
	.long	30
	.long	.Lxtalabel0
.cc_bottom cc_6
.cc_top cc_7,.Lxtalabel1
	.ascii	"../src/extensions/cat9555.xc"
	.byte	0
	.long	29
	.long	30
	.long	.Lxtalabel1
.cc_bottom cc_7
.cc_top cc_8,.Lxtalabel3
	.ascii	"../src/extensions/cat9555.xc"
	.byte	0
	.long	32
	.long	32
	.long	.Lxtalabel3
.cc_bottom cc_8
.cc_top cc_9,.Lxtalabel2
	.ascii	"../src/extensions/cat9555.xc"
	.byte	0
	.long	32
	.long	32
	.long	.Lxtalabel2
.cc_bottom cc_9
.cc_top cc_10,.Lxtalabel0
	.ascii	"../src/extensions/cat9555.xc"
	.byte	0
	.long	32
	.long	32
	.long	.Lxtalabel0
.cc_bottom cc_10
.cc_top cc_11,.Lxtalabel1
	.ascii	"../src/extensions/cat9555.xc"
	.byte	0
	.long	32
	.long	32
	.long	.Lxtalabel1
.cc_bottom cc_11
.cc_top cc_12,.Lxtalabel1
	.ascii	"../src/extensions/cat9555.xc"
	.byte	0
	.long	33
	.long	34
	.long	.Lxtalabel1
.cc_bottom cc_12
.cc_top cc_13,.Lxtalabel2
	.ascii	"../src/extensions/cat9555.xc"
	.byte	0
	.long	33
	.long	34
	.long	.Lxtalabel2
.cc_bottom cc_13
.cc_top cc_14,.Lxtalabel3
	.ascii	"../src/extensions/cat9555.xc"
	.byte	0
	.long	33
	.long	34
	.long	.Lxtalabel3
.cc_bottom cc_14
.cc_top cc_15,.Lxtalabel0
	.ascii	"../src/extensions/cat9555.xc"
	.byte	0
	.long	33
	.long	34
	.long	.Lxtalabel0
.cc_bottom cc_15
.cc_top cc_16,.Lxtalabel0
	.ascii	"../src/extensions/cat9555.xc"
	.byte	0
	.long	36
	.long	37
	.long	.Lxtalabel0
.cc_bottom cc_16
.cc_top cc_17,.Lxtalabel3
	.ascii	"../src/extensions/cat9555.xc"
	.byte	0
	.long	36
	.long	37
	.long	.Lxtalabel3
.cc_bottom cc_17
.cc_top cc_18,.Lxtalabel2
	.ascii	"../src/extensions/cat9555.xc"
	.byte	0
	.long	36
	.long	37
	.long	.Lxtalabel2
.cc_bottom cc_18
.cc_top cc_19,.Lxtalabel1
	.ascii	"../src/extensions/cat9555.xc"
	.byte	0
	.long	36
	.long	37
	.long	.Lxtalabel1
.cc_bottom cc_19
.cc_top cc_20,.Lxtalabel4
	.ascii	"../src/extensions/cat9555.xc"
	.byte	0
	.long	42
	.long	42
	.long	.Lxtalabel4
.cc_bottom cc_20
.cc_top cc_21,.Lxtalabel4
	.ascii	"../src/extensions/cat9555.xc"
	.byte	0
	.long	44
	.long	45
	.long	.Lxtalabel4
.cc_bottom cc_21
.cc_top cc_22,.Lxtalabel5
	.ascii	"../src/extensions/cat9555.xc"
	.byte	0
	.long	46
	.long	47
	.long	.Lxtalabel5
.cc_bottom cc_22
.cc_top cc_23,.Lxtalabel2
	.ascii	"../src/extensions/cat9555.xc"
	.byte	0
	.long	51
	.long	55
	.long	.Lxtalabel2
.cc_bottom cc_23
.cc_top cc_24,.Lxtalabel3
	.ascii	"../src/extensions/cat9555.xc"
	.byte	0
	.long	51
	.long	55
	.long	.Lxtalabel3
.cc_bottom cc_24
.Lentries_end5:
	.section	.trap_info,"",@progbits
.Ltrap_info_entries_start0:
	.long	.Ltrap_info_entries_end0-.Ltrap_info_entries_start0
	.long	1
.Ltrap_info_entries_end0: