	.text
	.file	"endpoint0.c"
	.section	.cp.rodata.cst4,"aMc",@progbits,4
	.cc_top .LCPI0_0.data,.LCPI0_0
	.align	4
	.type	.LCPI0_0,@object
	.size	.LCPI0_0, 4
.LCPI0_0:
	.long	305419896
	.cc_bottom .LCPI0_0.data
	.cc_top .LCPI0_1.data,.LCPI0_1
	.align	4
	.type	.LCPI0_1,@object
	.size	.LCPI0_1, 4
.LCPI0_1:
	.long	50000000
	.cc_bottom .LCPI0_1.data
	.cc_top .LCPI0_2.data,.LCPI0_2
	.align	4
	.type	.LCPI0_2,@object
	.size	.LCPI0_2, 4
.LCPI0_2:
	.long	5000000
	.cc_bottom .LCPI0_2.data
	.text
	.globl	Endpoint0
	.align	4
	.type	Endpoint0,@function
	.cc_top Endpoint0.function,Endpoint0
Endpoint0:
.Lfunc_begin0:
	.loc	6 211 0
	.cfi_startproc
	.issue_mode dual
	{
		nop
		dualentsp 40
	}
.Ltmp0:
	.cfi_def_cfa_offset 160
.Ltmp1:
	.cfi_offset 15, 0
	{
		nop
		stw r4, sp[32]
	}
	{
		nop
		stw r5, sp[33]
	}
.Ltmp2:
	.cfi_offset 4, -32
.Ltmp3:
	.cfi_offset 5, -28
	{
		nop
		stw r6, sp[34]
	}
	{
		nop
		stw r7, sp[35]
	}
.Ltmp4:
	.cfi_offset 6, -24
.Ltmp5:
	.cfi_offset 7, -20
	{
		nop
		stw r8, sp[36]
	}
	{
		nop
		stw r9, sp[37]
	}
.Ltmp6:
	.cfi_offset 8, -16
.Ltmp7:
	.cfi_offset 9, -12
	{
		nop
		stw r10, sp[38]
	}
.Ltmp8:
	.cfi_offset 10, -8
.Ltmp9:
	{
		mov r8, r2
		stw r3, sp[21]
	}
.Ltmp10:
	{
		mov r4, r1
		stw r8, sp[24]
	}
.Ltmp11:
	{
		nop
		ldw r1, sp[42]
	}
	{
		nop
		ldw r2, sp[43]
	}
	{
		nop
		stw r2, sp[20]
	}
	.loc	6 213 22 prologue_end
.Ltmp12:
	bl XUD_InitEp
.Ltmp13:
	{
		mov r6, r0
		nop
	}
.Ltmp14:
	.loc	6 214 22
	{
		mov r0, r4
		stw r6, sp[23]
	}
.Ltmp15:
	bl XUD_InitEp
	{
		mov r5, r0
		nop
	}
.Ltmp16:
	{
		nop
		stw r5, sp[28]
	}
.Ltmp17:
	.loc	6 219 9
	ldaw r0, dp[volsOut]
	{
		ldc r7, 0
		ldc r4, 20
	}
	{
		mov r1, r7
		mov r2, r4
	}
	bl memset
	.loc	6 220 9
	ldaw r0, dp[mutesOut]
	{
		mov r1, r7
		mov r2, r4
	}
	bl memset
.Ltmp18:
	.loc	6 225 9
	ldaw r0, dp[volsIn]
	{
		mov r1, r7
		mov r2, r4
	}
	bl memset
	.loc	6 226 9
	ldaw r0, dp[mutesIn]
	{
		mov r1, r7
		mov r2, r4
	}
	bl memset
	ldc r0, 144
	ldaw r1, dp[mixer1Weights]
	ldc r2, 32769
.Ltmp19:
.LBB0_1:
	.loc	6 233 9
	st16 r2, r1[r7]
.Ltmp20:
	.loc	6 231 5
	{
		sub r0, r0, 1
		add r1, r1, 2
	}
.xtaloop 144
	# LOOPMARKER 0
	.loc	6 231 5
	bt r0, .LBB0_1
.Ltmp21:
	.loc	6 237 5
	ldaw r0, dp[mixer1Weights]
	st16 r7, r0[r7]
	ldaw r0, dp[mixer1Weights+16]
	{
		add r0, r0, 2
		nop
	}
	.loc	6 238 5
	st16 r7, r0[r7]
	ldaw r0, dp[mixer1Weights+36]
	.loc	6 239 5
	st16 r7, r0[r7]
	ldaw r0, dp[mixer1Weights+52]
	{
		add r0, r0, 2
		nop
	}
	.loc	6 240 5
	st16 r7, r0[r7]
	ldaw r0, dp[mixer1Weights+72]
	.loc	6 241 5
	st16 r7, r0[r7]
	ldaw r0, dp[mixer1Weights+88]
	{
		add r0, r0, 2
		nop
	}
	.loc	6 242 5
	st16 r7, r0[r7]
	ldaw r0, dp[mixer1Weights+108]
	.loc	6 243 5
	st16 r7, r0[r7]
	ldaw r0, dp[mixer1Weights+124]
	{
		add r0, r0, 2
		nop
	}
	.loc	6 244 5
	st16 r7, r0[r7]
	ldaw r0, dp[channelMapAud]
.Ltmp22:
	.loc	6 250 8
	st8 r7, r0[r7]
	{
		mkmsk r10, 1
		nop
	}
.Ltmp23:
	.loc	6 250 8
	st8 r10, r0[r10]
	{
		ldc r11, 2
		nop
	}
	.loc	6 250 8
	st8 r11, r0[r11]
	{
		mkmsk r4, 2
		nop
	}
	.loc	6 250 8
	st8 r4, r0[r4]
	ldaw r0, dp[channelMapUsb]
	{
		ldc r9, 4
		nop
	}
.Ltmp24:
	.loc	6 257 8
	st8 r9, r0[r7]
	{
		ldc r1, 5
		nop
	}
.Ltmp25:
	.loc	6 257 8
	st8 r1, r0[r10]
	{
		ldc r2, 6
		nop
	}
	.loc	6 257 8
	st8 r2, r0[r11]
	{
		mkmsk r3, 3
		nop
	}
	.loc	6 257 8
	st8 r3, r0[r4]
	ldaw r0, dp[channelMap]
.Ltmp26:
	.loc	6 264 9
	st8 r7, r0[r7]
.Ltmp27:
	.loc	6 264 9
	st8 r10, r0[r10]
	.loc	6 264 9
	st8 r11, r0[r11]
	.loc	6 264 9
	st8 r4, r0[r4]
	ldaw r0, dp[channelMap+4]
	.loc	6 264 9
	st8 r9, r0[r7]
	.loc	6 264 9
	st8 r1, r0[r10]
	.loc	6 264 9
	st8 r2, r0[r11]
	.loc	6 264 9
	st8 r3, r0[r4]
.Ltmp28:
	.loc	6 289 9
	{
		mov r0, r7
		nop
	}
	bl DFUReportResetState
	bf r0, .LBB0_4
.Ltmp29:
	.loc	6 292 9
	#APP
	out res[r8], r9
	#NO_APP
	ldw r0, cp[.LCPI0_0]
	.loc	6 293 9
	#APP
	out res[r8], r0
	#NO_APP
	.loc	6 295 9
	stw r10, dp[DFU_mode_active]
.Ltmp30:
.LBB0_4:
	{
		ldaw r9, sp[29]
		ldc r0, 2
	}
	.loc	6 310 13
.Ltmp31:
	{
		or r0, r9, r0
		nop
	}
	{
		nop
		stw r0, sp[25]
	}
	ldaw r0, dp[cfgDesc_Audio2+304]
	{
		add r0, r0, 2
		nop
	}
	{
		ldc r4, 20
		stw r0, sp[22]
	}
	{
		mov r10, r7
		nop
	}
	bu .LBB0_5
.Ltmp32:
.LBB0_85:
	{
		nop
		ldw r5, sp[28]
	}
.Ltmp33:
.LBB0_5:
	.loc	6 303 31
	{
		mov r0, r6
		mov r1, r5
	}
	{
		mov r2, r9
		nop
	}
	bl USB_GetSetupPacket
	{
		mov r5, r0
		nop
	}
.Ltmp34:
	bt r5, .LBB0_24
.Ltmp35:
	{
		nop
		ldw r0, sp[25]
	}
	{
		nop
		ld8u r0, r0[r10]
	}
	.loc	6 310 13
.Ltmp36:
	{
		shl r0, r0, 7
		ldw r2, sp[29]
	}
	.loc	6 310 13
	{
		mov r1, r2
		nop
	}
	{
		zext r1, 8
		nop
	}
	.loc	6 310 13
	{
		or r0, r0, r1
		shr r1, r2, 3
	}
	ldc r3, 8160
	.loc	6 310 13
	{
		and r1, r1, r3
		nop
	}
	.loc	6 310 13
	{
		or r1, r0, r1
		shr r0, r2, 24
	}
	ldc r2, 160
	.loc	6 310 13
	{
		lss r2, r2, r1
		nop
	}
	bt r2, .LBB0_25
.Ltmp37:
	ldc r2, 128
	{
		lss r2, r2, r1
		nop
	}
	bt r2, .LBB0_57
.Ltmp38:
	bf r1, .LBB0_65
.Ltmp39:
	{
		eq r2, r1, 1
		nop
	}
	bf r2, .LBB0_10
.Ltmp40:
	.loc	6 315 24
	{
		eq r0, r0, 11
		nop
	}
	bf r0, .LBB0_67
.Ltmp41:
	.loc	6 317 25
	{
		add r0, r9, 6
		nop
	}
	{
		nop
		ld16s r0, r0[r10]
	}
	.loc	6 317 25
	{
		zext r0, 16
		nop
	}
	.loc	6 317 25
	{
		eq r1, r0, 2
		nop
	}
	bf r1, .LBB0_28
.Ltmp42:
	{
		nop
		ldw r1, sp[30]
	}
	ldw r2, dp[g_curStreamAlt_In]
	{
		shr r0, r1, 16
		zext r1, 16
	}
	.loc	6 358 36
.Ltmp43:
	{
		eq r3, r1, 1
		nop
	}
	bf r3, .LBB0_36
.Ltmp44:
	{
		eq r2, r2, r1
		mkmsk r5, 1
	}
	bt r2, .LBB0_42
.Ltmp45:
	.loc	6 364 41
	stw r1, dp[g_curStreamAlt_In]
	{
		ldc r2, 9
		nop
	}
	.loc	6 367 41
	#APP
	out res[r8], r2
	#NO_APP
	.loc	6 368 41
	{
		sub r1, r1, 1
		nop
	}
	.loc	6 368 41
	ldaw r11, cp[g_dataFormat_In]
	{
		nop
		ldw r2, r11[r1]
	}
	.loc	6 368 41
	#APP
	out res[r8], r2
	#NO_APP
	.loc	6 370 44
.Ltmp46:
	ldw r2, dp[g_curUsbSpeed]
	.loc	6 370 44
	{
		eq r2, r2, 2
		nop
	}
	bf r2, .LBB0_40
.Ltmp47:
	.loc	6 372 45
	ldaw r11, cp[g_chanCount_In_HS]
	{
		nop
		ldw r2, r11[r1]
	}
	.loc	6 372 45
	#APP
	out res[r8], r2
	#NO_APP
	.loc	6 373 45
	ldaw r11, cp[g_subSlot_In_HS]
	{
		nop
		ldw r1, r11[r1]
	}
	.loc	6 373 45
	#APP
	out res[r8], r1
	#NO_APP
	{
		ldc r1, 24
		nop
	}
	.loc	6 374 45
	#APP
	out res[r8], r1
	#NO_APP
	bu .LBB0_41
.Ltmp48:
.LBB0_25:
	ldc r2, 161
.Ltmp49:
.LBB0_11:
	{
		eq r1, r1, r2
		nop
	}
	bf r1, .LBB0_67
.Ltmp50:
	{
		mov r3, r10
		mkmsk r11, 1
	}
.Ltmp51:
	{
		mov r1, r9
		mov r9, r8
	}
.Ltmp52:
	.loc	6 550 25
	{
		add r1, r1, 6
		nop
	}
.Ltmp53:
	{
		nop
		ld16s r4, r1[r3]
	}
	.loc	6 550 25
	{
		mov r8, r4
		nop
	}
	{
		zext r8, 8
		nop
	}
.Ltmp54:
	.loc	6 558 29
	ldw r1, dp[DFU_mode_active]
	.loc	6 558 29
	{
		mov r2, r3
		mov r7, r3
	}
	bt r1, .LBB0_14
.Ltmp55:
	{
		mkmsk r2, 2
		nop
	}
.Ltmp56:
.LBB0_14:
	.loc	6 550 25
	{
		zext r4, 16
		eq r2, r8, r2
	}
.Ltmp57:
	{
		mov r5, r11
		nop
	}
	bf r2, .LBB0_20
.Ltmp58:
	.loc	6 565 29
	{
		add r0, r0, 11
		stw r7, sp[27]
	}
	bt r1, .LBB0_18
.Ltmp59:
	{
		zext r0, 8
		ldc r1, 2
	}
	{
		lsu r0, r0, r1
		nop
	}
	bt r0, .LBB0_18
.Ltmp60:
	{
		ldc r0, 4
		nop
	}
	.loc	6 573 33
.Ltmp61:
	#APP
	out res[r9], r0
	#NO_APP
	ldw r0, cp[.LCPI0_0]
	.loc	6 574 33
	#APP
	out res[r9], r0
	#NO_APP
	.loc	6 576 12
	#APP
	chkct res[r9], r11
	#NO_APP
.Ltmp62:
.LBB0_18:
	ldaw r0, dp[g_interfaceAlt]
	{
		nop
		ld8u r0, r0[r4]
	}
.Ltmp63:
	.loc	6 580 38
	{
		ldaw r2, sp[27]
		ldw r1, sp[20]
	}
	std r2, r1, sp[1]
.Ltmp64:
	{
		mov r0, r6
		stw r0, sp[1]
	}
	{
		ldaw r1, sp[28]
		ldaw r2, sp[29]
	}
	{
		mov r3, r7
		nop
	}
	bl DFUDeviceRequests
.Ltmp65:
	{
		mov r5, r0
		ldw r0, sp[27]
	}
.Ltmp66:
	bf r0, .LBB0_20
.Ltmp67:
	ldw r0, cp[.LCPI0_1]
	.loc	6 584 33
.Ltmp68:
	bl DFUDelay
	.loc	6 585 33
	{
		mov r0, r9
		nop
	}
	bl device_reboot
.Ltmp69:
.LBB0_20:
	ldc r0, 254
	.loc	6 593 28
.Ltmp70:
	{
		and r0, r4, r0
		nop
	}
	.loc	6 593 28
	{
		eq r0, r0, 0
		nop
	}
	{
		eq r0, r0, 0
		eq r1, r8, 2
	}
	.loc	6 593 28
	{
		eq r1, r1, 0
		nop
	}
	.loc	6 593 28
	{
		and r1, r1, r0
		nop
	}
	ldw r0, dp[DFU_mode_active]
.Ltmp71:
	{
		mov r8, r9
		ldc r9, 20
	}
.Ltmp72:
	{
		mov r4, r9
		mov r10, r7
	}
	{
		ldaw r9, sp[29]
		nop
	}
.Ltmp73:
	bt r1, .LBB0_24
.Ltmp74:
	bt r0, .LBB0_24
.Ltmp75:
	{
		nop
		ldw r1, sp[28]
	}
	{
		nop
		ldw r0, sp[41]
	}
	{
		nop
		stw r0, sp[2]
	}
	{
		nop
		ldw r0, sp[21]
	}
	.loc	6 609 38
.Ltmp76:
	{
		mov r0, r6
		stw r0, sp[1]
	}
	{
		mov r2, r9
		mov r3, r8
	}
	bl AudioClassRequests_2
	bu .LBB0_23
.Ltmp77:
.LBB0_57:
	ldc r2, 129
	{
		eq r1, r1, r2
		nop
	}
	bf r1, .LBB0_67
.Ltmp78:
	{
		add r1, r9, 6
		nop
	}
	{
		eq r0, r0, 6
		ld16s r1, r1[r10]
	}
	bf r0, .LBB0_67
.Ltmp79:
	{
		zext r1, 16
		nop
	}
	{
		eq r0, r1, 4
		nop
	}
	bf r0, .LBB0_67
.Ltmp80:
	.loc	6 477 33
	{
		ldaw r0, sp[30]
		nop
	}
	{
		nop
		ld16s r0, r0[r10]
	}
	ldc r1, 65280
	.loc	6 477 33
	{
		and r0, r0, r1
		nop
	}
.Ltmp81:
	ldc r1, 8704
	.loc	6 479 33
	{
		eq r1, r0, r1
		nop
	}
	bf r1, .LBB0_61
.Ltmp82:
	.loc	6 488 50
	{
		ldaw r0, sp[31]
		ldw r1, sp[28]
	}
	{
		nop
		ld16s r0, r0[r10]
	}
	.loc	6 488 50
	{
		zext r0, 16
		nop
	}
	.loc	6 488 50
	{
		mov r0, r6
		stw r0, sp[1]
	}
	ldaw r2, dp[hidReportDescriptor]
	{
		ldc r3, 33
		nop
	}
	.loc	6 483 51
	bl XUD_DoGetRequest
	bu .LBB0_23
.Ltmp83:
.LBB0_65:
	.loc	6 504 21
	{
		eq r0, r0, 9
		nop
	}
	bf r0, .LBB0_67
.Ltmp84:
	{
		mkmsk r0, 1
		nop
	}
	.loc	6 513 33
.Ltmp85:
	bl UserHostActive
	bu .LBB0_67
.Ltmp86:
.LBB0_10:
	{
		ldc r2, 33
		nop
	}
	bu .LBB0_11
.Ltmp87:
.LBB0_61:
	ldc r1, 8448
	{
		eq r0, r0, r1
		nop
	}
	bf r0, .LBB0_67
.Ltmp88:
	.loc	6 483 51
	{
		ldaw r0, sp[31]
		ldw r1, sp[28]
	}
	{
		nop
		ld16s r0, r0[r10]
	}
	.loc	6 483 51
	{
		zext r0, 16
		nop
	}
	.loc	6 483 51
	{
		mov r0, r6
		stw r0, sp[1]
	}
	ldaw r2, dp[hidDescriptor]
	{
		ldc r3, 9
		nop
	}
	bl XUD_DoGetRequest
.Ltmp89:
.LBB0_23:
	.loc	6 609 38
	{
		mov r5, r0
		nop
	}
.Ltmp90:
.LBB0_24:
	.loc	6 635 12
	{
		eq r0, r5, 1
		nop
	}
	bt r0, .LBB0_67
	bu .LBB0_81
.Ltmp91:
.LBB0_28:
	{
		eq r1, r0, 1
		mkmsk r5, 1
	}
	bf r1, .LBB0_42
.Ltmp92:
	{
		nop
		ldw r0, sp[30]
	}
	.loc	6 323 36
.Ltmp93:
	{
		mov r1, r0
		nop
	}
	{
		zext r1, 16
		sub r2, r0, 1
	}
	.loc	6 323 36
	{
		zext r2, 16
		nop
	}
	.loc	6 323 36
	{
		lsu r3, r5, r2
		nop
	}
	ldw r2, dp[g_curStreamAlt_Out]
	{
		shr r0, r0, 16
		nop
	}
	bt r3, .LBB0_42
.Ltmp94:
	{
		eq r2, r2, r1
		nop
	}
	bt r2, .LBB0_42
.Ltmp95:
	.loc	6 329 41
	stw r1, dp[g_curStreamAlt_Out]
	{
		ldc r2, 8
		nop
	}
	.loc	6 332 41
	#APP
	out res[r8], r2
	#NO_APP
	.loc	6 333 41
	{
		sub r1, r1, 1
		nop
	}
	.loc	6 333 41
	ldaw r11, cp[g_dataFormat_Out]
	{
		nop
		ldw r2, r11[r1]
	}
	.loc	6 333 41
	#APP
	out res[r8], r2
	#NO_APP
	.loc	6 335 44
.Ltmp96:
	ldw r2, dp[g_curUsbSpeed]
	.loc	6 335 44
	{
		eq r2, r2, 2
		nop
	}
	bf r2, .LBB0_33
.Ltmp97:
	{
		ldc r2, 4
		nop
	}
	.loc	6 337 45
.Ltmp98:
	#APP
	out res[r8], r2
	#NO_APP
	.loc	6 338 45
	ldaw r11, cp[g_subSlot_Out_HS]
	{
		nop
		ldw r2, r11[r1]
	}
	.loc	6 338 45
	#APP
	out res[r8], r2
	#NO_APP
	.loc	6 339 45
	ldaw r11, cp[g_sampRes_Out_HS]
	{
		nop
		ldw r1, r11[r1]
	}
	.loc	6 339 45
	#APP
	out res[r8], r1
	#NO_APP
.Ltmp99:
	.loc	6 349 41
	#APP
	chkct res[r8], r5
	#NO_APP
	bu .LBB0_42
.Ltmp100:
.LBB0_36:
	{
		mkmsk r5, 1
		nop
	}
	bu .LBB0_42
.Ltmp101:
.LBB0_40:
	{
		ldc r2, 10
		nop
	}
	.loc	6 378 45
.Ltmp102:
	#APP
	out res[r8], r2
	#NO_APP
	.loc	6 379 45
	ldaw r11, cp[g_subSlot_In_FS]
	{
		nop
		ldw r1, r11[r1]
	}
	.loc	6 379 45
	#APP
	out res[r8], r1
	#NO_APP
	{
		ldc r1, 24
		nop
	}
	.loc	6 380 45
	#APP
	out res[r8], r1
	#NO_APP
.Ltmp103:
.LBB0_41:
	.loc	6 384 41
	#APP
	chkct res[r8], r5
	#NO_APP
	bu .LBB0_42
.Ltmp104:
.LBB0_33:
	{
		ldc r2, 10
		nop
	}
	.loc	6 343 45
.Ltmp105:
	#APP
	out res[r8], r2
	#NO_APP
	.loc	6 344 45
	ldaw r11, cp[g_subSlot_Out_FS]
	{
		nop
		ldw r2, r11[r1]
	}
	.loc	6 344 45
	#APP
	out res[r8], r2
	#NO_APP
	.loc	6 345 45
	ldaw r11, cp[g_sampRes_Out_FS]
	{
		nop
		ldw r1, r11[r1]
	}
	.loc	6 345 45
	#APP
	out res[r8], r1
	#NO_APP
.Ltmp106:
	.loc	6 349 41
	#APP
	chkct res[r8], r5
	#NO_APP
.Ltmp107:
.LBB0_42:
	.loc	6 414 29
	{
		sub r0, r0, 1
		nop
	}
	{
		zext r0, 16
		nop
	}
	.loc	6 414 29
	{
		lsu r0, r5, r0
		nop
	}
	bt r0, .LBB0_67
.Ltmp108:
	{
		nop
		ldw r0, sp[30]
	}
	{
		shr r1, r0, 16
		zext r0, 16
	}
	.loc	6 417 32
.Ltmp109:
	bf r0, .LBB0_47
.Ltmp110:
	ldaw r0, dp[g_interfaceAlt]
	{
		mkmsk r1, 1
		nop
	}
	{
		nop
		ld8u r0, r0[r1]
	}
	bt r0, .LBB0_67
.Ltmp111:
	{
		ldc r0, 2
		nop
	}
	ldaw r1, dp[g_interfaceAlt]
	{
		nop
		ld8u r0, r1[r0]
	}
	bt r0, .LBB0_67
.Ltmp112:
	.loc	6 420 33
	bl UserAudioStreamStart
	bu .LBB0_67
.Ltmp113:
.LBB0_47:
	.loc	6 422 37
	{
		eq r2, r1, 1
		nop
	}
	bf r2, .LBB0_52
.Ltmp114:
	bt r0, .LBB0_52
.Ltmp115:
	ldaw r2, dp[g_interfaceAlt]
	{
		mkmsk r3, 1
		nop
	}
	{
		nop
		ld8u r2, r2[r3]
	}
	bf r2, .LBB0_52
.Ltmp116:
	{
		ldc r2, 2
		nop
	}
	ldaw r3, dp[g_interfaceAlt]
	{
		nop
		ld8u r2, r3[r2]
	}
	bf r2, .LBB0_51
.Ltmp117:
.LBB0_52:
	.loc	6 427 37
	{
		eq r1, r1, 2
		nop
	}
	bf r1, .LBB0_67
.Ltmp118:
	bt r0, .LBB0_67
.Ltmp119:
	{
		ldc r0, 2
		nop
	}
	ldaw r1, dp[g_interfaceAlt]
	{
		nop
		ld8u r0, r1[r0]
	}
	bf r0, .LBB0_67
.Ltmp120:
	ldaw r0, dp[g_interfaceAlt]
	{
		mkmsk r1, 1
		nop
	}
	{
		nop
		ld8u r0, r0[r1]
	}
	bt r0, .LBB0_67
.Ltmp121:
	.loc	6 430 33
	bl UserAudioStreamStop
	bu .LBB0_67
.Ltmp122:
.LBB0_51:
	.loc	6 425 33
	bl UserAudioStreamStop
.Ltmp123:
.LBB0_67:
	.loc	6 638 17
	ldw r0, dp[DFU_mode_active]
	.loc	6 638 17
	bf r0, .LBB0_68
.Ltmp124:
	{
		nop
		ldw r1, sp[28]
	}
	.loc	6 786 26
.Ltmp125:
	ldw r0, dp[g_curUsbSpeed]
	.loc	6 786 26
	std r9, r4, sp[4]
.Ltmp126:
	.loc	6 739 30
	ldaw r2, dp[g_strTable]
.Ltmp127:
	.loc	6 786 26
	std r2, r10, sp[3]
	{
		ldc r2, 27
		nop
	}
	std r10, r2, sp[1]
	{
		nop
		stw r0, sp[10]
	}
	std r10, r10, sp[2]
	ldaw r0, dp[DFUcfgDesc]
	{
		mov r0, r6
		stw r0, sp[1]
	}
	ldaw r2, dp[DFUdevDesc]
	{
		ldc r3, 18
		nop
	}
	bl USB_StandardRequests
	{
		mov r5, r0
		nop
	}
.Ltmp128:
	bu .LBB0_81
.Ltmp129:
.LBB0_68:
	.loc	6 654 20
	ldw r0, dp[g_curUsbSpeed]
	.loc	6 654 20
	{
		eq r11, r0, 2
		stw r0, sp[26]
	}
	{
		ldc r2, 4
		nop
	}
	.loc	6 686 17
.Ltmp130:
	{
		mov r1, r2
		nop
	}
	bt r11, .LBB0_70
.Ltmp131:
	{
		ldc r1, 10
		nop
	}
.Ltmp132:
.LBB0_70:
	bt r11, .LBB0_72
.Ltmp133:
	{
		mkmsk r2, 2
		nop
	}
.Ltmp134:
.LBB0_72:
	ldc r3, 400
	bt r11, .LBB0_74
.Ltmp135:
	ldc r3, 1470
.Ltmp136:
.LBB0_74:
	ldc r4, 200
.Ltmp137:
	bt r11, .LBB0_76
.Ltmp138:
	ldc r4, 980
.Ltmp139:
.LBB0_76:
	{
		mkmsk r11, 2
		nop
	}
	{
		mov r8, r11
		nop
	}
	ldaw r11, dp[cfgDesc_Audio2+56]
	.loc	6 658 21
	st8 r1, r11[r8]
	ldaw r11, dp[cfgDesc_Audio2+196]
.Ltmp140:
	.loc	6 693 21
	st8 r2, r11[r8]
	{
		ldc r11, 24
		nop
	}
	{
		mov r6, r11
		nop
	}
	ldaw r11, dp[cfgDesc_Audio2+200]
.Ltmp141:
	.loc	6 661 21
	st8 r6, r11[r10]
.Ltmp142:
	.loc	6 695 21
	{
		shr r11, r3, 8
		ldc r5, 2
	}
	ldaw r9, dp[cfgDesc_Audio2+204]
	st8 r11, r9[r5]
	{
		mkmsk r11, 1
		nop
	}
	{
		mov r0, r11
		nop
	}
	st8 r3, r9[r0]
	ldaw r11, dp[cfgDesc_Audio2+188]
.Ltmp143:
	.loc	6 663 21
	st8 r1, r11[r0]
	ldaw r11, dp[cfgDesc_Audio2+244]
.Ltmp144:
	.loc	6 699 21
	st8 r5, r11[r0]
	{
		ldc r9, 16
		nop
	}
.Ltmp145:
	.loc	6 667 21
	st8 r9, r11[r5]
.Ltmp146:
	.loc	6 701 21
	{
		shr r11, r4, 8
		mov r9, r10
	}
	{
		ldc r10, 4
		nop
	}
	ldaw r7, dp[cfgDesc_Audio2+248]
	st8 r11, r7[r10]
	{
		mov r10, r9
		nop
	}
	st8 r4, r7[r8]
	ldaw r11, dp[cfgDesc_Audio2+232]
.Ltmp147:
	.loc	6 669 21
	st8 r1, r11[r8]
	ldaw r11, dp[cfgDesc_Audio2+112]
.Ltmp148:
	.loc	6 713 21
	st8 r1, r11[r5]
	ldaw r11, dp[cfgDesc_Audio2+300]
.Ltmp149:
	.loc	6 681 21
	st8 r2, r11[r10]
.Ltmp150:
	.loc	6 715 21
	st8 r6, r11[r0]
	{
		nop
		ldw r0, sp[22]
	}
.Ltmp151:
	.loc	6 683 21
	st16 r3, r0[r10]
	ldaw r0, dp[cfgDesc_Audio2+288]
.Ltmp152:
	.loc	6 717 21
	st8 r1, r0[r5]
.Ltmp153:
	.loc	6 724 21
	ldaw r0, dp[exio_value]
	{
		nop
		ld8u r2, r0[r10]
	}
	.loc	6 726 30
.Ltmp154:
	{
		ldc r4, 20
		ldw r1, sp[28]
	}
	{
		ldaw r9, sp[29]
		nop
	}
.Ltmp155:
	.loc	6 724 21
	bf r2, .LBB0_79
.Ltmp156:
	.loc	6 726 30
	std r9, r4, sp[4]
.Ltmp157:
	.loc	6 739 30
	ldaw r0, dp[g_strTable]
.Ltmp158:
	.loc	6 726 30
	std r0, r10, sp[3]
	ldc r0, 360
	std r10, r0, sp[1]
	{
		nop
		ldw r0, sp[26]
	}
	{
		nop
		stw r0, sp[10]
	}
	std r10, r10, sp[2]
.Ltmp159:
	.loc	6 739 30
	ldaw r0, dp[cfgDesc_Audio2]
	{
		nop
		stw r0, sp[1]
	}
	{
		nop
		ldw r6, sp[23]
	}
.Ltmp160:
	.loc	6 726 30
	{
		mov r0, r6
		nop
	}
	ldaw r2, dp[devDesc_Audio2_01]
	bu .LBB0_78
.Ltmp161:
.LBB0_79:
	.loc	6 739 30
	std r9, r4, sp[4]
	ldaw r0, dp[g_strTable]
	std r0, r10, sp[3]
	ldc r0, 360
	std r10, r0, sp[1]
	{
		nop
		ldw r0, sp[26]
	}
	{
		nop
		stw r0, sp[10]
	}
	std r10, r10, sp[2]
	ldaw r0, dp[cfgDesc_Audio2]
	{
		nop
		stw r0, sp[1]
	}
	{
		nop
		ldw r6, sp[23]
	}
.Ltmp162:
	{
		mov r0, r6
		nop
	}
	ldaw r2, dp[devDesc_Audio2]
.Ltmp163:
.LBB0_78:
	{
		ldc r3, 18
		nop
	}
	.loc	6 726 30
.Ltmp164:
	bl USB_StandardRequests
.Ltmp165:
	{
		mov r5, r0
		ldw r8, sp[24]
	}
.Ltmp166:
.LBB0_81:
	{
		mkmsk r0, 32
		nop
	}
	.loc	6 796 13
.Ltmp167:
	{
		eq r0, r5, r0
		nop
	}
	bf r0, .LBB0_85
.Ltmp168:
	.loc	6 801 29
	{
		mov r0, r6
		ldaw r1, sp[28]
	}
	bl XUD_ResetEndpoint
	.loc	6 801 29
	stw r0, dp[g_curUsbSpeed]
	.loc	6 803 13
	ldaw r0, dp[g_currentConfig]
	st8 r10, r0[r10]
	.loc	6 804 13
	stw r10, dp[g_curStreamAlt_Out]
	.loc	6 805 13
	stw r10, dp[g_curStreamAlt_In]
	.loc	6 808 17
.Ltmp169:
	{
		mov r0, r10
		nop
	}
	bl DFUReportResetState
	.loc	6 810 21
.Ltmp170:
	ldw r1, dp[DFU_mode_active]
.Ltmp171:
	.loc	6 808 17
	bf r0, .LBB0_86
.Ltmp172:
	bt r1, .LBB0_85
.Ltmp173:
	{
		mkmsk r0, 1
		nop
	}
	.loc	6 812 21
.Ltmp174:
	stw r0, dp[DFU_mode_active]
	bu .LBB0_85
.Ltmp175:
.LBB0_86:
	bf r1, .LBB0_85
.Ltmp176:
	.loc	6 819 21
	stw r10, dp[DFU_mode_active]
	ldw r0, cp[.LCPI0_2]
	.loc	6 822 21
	bl DFUDelay
	.loc	6 823 21
	{
		mov r0, r8
		nop
	}
	bl device_reboot
	{
		nop
		ldw r5, sp[28]
	}
	bu .LBB0_5
.Ltmp177:
	.cc_bottom Endpoint0.function
	.set	Endpoint0.nstackwords,((XUD_InitEp.nstackwords $M memset.nstackwords $M USB_GetSetupPacket.nstackwords $M UserHostActive.nstackwords $M XUD_ResetEndpoint.nstackwords $M DFUReportResetState.nstackwords $M USB_StandardRequests.nstackwords $M UserAudioStreamStop.nstackwords $M UserAudioStreamStart.nstackwords $M DFUDeviceRequests.nstackwords $M AudioClassRequests_2.nstackwords $M DFUDelay.nstackwords $M device_reboot.nstackwords $M XUD_DoGetRequest.nstackwords) + 40)
	.globl	Endpoint0.nstackwords
	.set	Endpoint0.maxcores,AudioClassRequests_2.maxcores $M DFUDelay.maxcores $M DFUDeviceRequests.maxcores $M DFUReportResetState.maxcores $M USB_GetSetupPacket.maxcores $M USB_StandardRequests.maxcores $M UserAudioStreamStart.maxcores $M UserAudioStreamStop.maxcores $M UserHostActive.maxcores $M XUD_DoGetRequest.maxcores $M XUD_InitEp.maxcores $M XUD_ResetEndpoint.maxcores $M device_reboot.maxcores $M 1
	.globl	Endpoint0.maxcores
	.set	Endpoint0.maxtimers,AudioClassRequests_2.maxtimers $M DFUDelay.maxtimers $M DFUDeviceRequests.maxtimers $M DFUReportResetState.maxtimers $M USB_GetSetupPacket.maxtimers $M USB_StandardRequests.maxtimers $M UserAudioStreamStart.maxtimers $M UserAudioStreamStop.maxtimers $M UserHostActive.maxtimers $M XUD_DoGetRequest.maxtimers $M XUD_InitEp.maxtimers $M XUD_ResetEndpoint.maxtimers $M device_reboot.maxtimers $M 0
	.globl	Endpoint0.maxtimers
	.set	Endpoint0.maxchanends,AudioClassRequests_2.maxchanends $M DFUDelay.maxchanends $M DFUDeviceRequests.maxchanends $M DFUReportResetState.maxchanends $M USB_GetSetupPacket.maxchanends $M USB_StandardRequests.maxchanends $M UserAudioStreamStart.maxchanends $M UserAudioStreamStop.maxchanends $M UserHostActive.maxchanends $M XUD_DoGetRequest.maxchanends $M XUD_InitEp.maxchanends $M XUD_ResetEndpoint.maxchanends $M device_reboot.maxchanends $M 0
	.globl	Endpoint0.maxchanends
.Ltmp178:
	.size	Endpoint0, .Ltmp178-Endpoint0
.Lfunc_end0:
	.cfi_endproc

	.section	.cp.rodata.string,"aMSc",@progbits
	.cc_top .L.str.data,.L.str
	.align	4
	.type	.L.str,@object
	.size	.L.str, 3
.L.str:
.asciiz"\t\004"
	.space	1
	.cc_bottom .L.str.data
	.cc_top .L.str1.data,.L.str1
	.align	4
	.type	.L.str1,@object
	.size	.L.str1, 5
.L.str1:
.asciiz"XMOS"
	.cc_bottom .L.str1.data
	.cc_top .L.str2.data,.L.str2
	.align	4
	.type	.L.str2,@object
	.size	.L.str2, 1
.L.str2:
	.space	1
	.space	3
	.cc_bottom .L.str2.data
	.cc_top .L.str3.data,.L.str3
	.align	4
	.type	.L.str3,@object
	.size	.L.str3, 15
.L.str3:
.asciiz"Audio Analyzer"
	.cc_bottom .L.str3.data
	.cc_top .L.str4.data,.L.str4
	.align	4
	.type	.L.str4,@object
	.size	.L.str4, 16
.L.str4:
.asciiz"Audio Analyzer "
	.cc_bottom .L.str4.data
	.cc_top .L.str5.data,.L.str5
	.align	4
	.type	.L.str5,@object
	.size	.L.str5, 20
.L.str5:
.asciiz"XMOS Clock Selector"
	.cc_bottom .L.str5.data
	.cc_top .L.str6.data,.L.str6
	.align	4
	.type	.L.str6,@object
	.size	.L.str6, 20
.L.str6:
.asciiz"XMOS Internal Clock"
	.cc_bottom .L.str6.data
	.cc_top .L.str7.data,.L.str7
	.align	4
	.type	.L.str7,@object
	.size	.L.str7, 9
.L.str7:
.asciiz"XMOS DFU"
	.cc_bottom .L.str7.data
	.cc_top .L.str8.data,.L.str8
	.align	4
	.type	.L.str8,@object
	.size	.L.str8, 11
.L.str8:
.asciiz"Analogue 1"
	.cc_bottom .L.str8.data
	.cc_top .L.str9.data,.L.str9
	.align	4
	.type	.L.str9,@object
	.size	.L.str9, 11
.L.str9:
.asciiz"Analogue 2"
	.cc_bottom .L.str9.data
	.cc_top .L.str10.data,.L.str10
	.align	4
	.type	.L.str10,@object
	.size	.L.str10, 11
.L.str10:
.asciiz"Analogue 3"
	.cc_bottom .L.str10.data
	.cc_top .L.str11.data,.L.str11
	.align	4
	.type	.L.str11,@object
	.size	.L.str11, 11
.L.str11:
.asciiz"Analogue 4"
	.cc_bottom .L.str11.data
	.cc_top .L.str12.data,.L.str12
	.align	4
	.type	.L.str12,@object
	.size	.L.str12, 14
.L.str12:
.asciiz"iAP Interface"
	.cc_bottom .L.str12.data
	.section	.dp.data,"awd",@progbits
	.cc_top g_strTable.data,g_strTable
	.globl	g_strTable
	.align	8
	.type	g_strTable,@object
	.size	g_strTable, 80
g_strTable:
	.long	.L.str
	.long	.L.str1
	.long	.L.str2
	.long	.L.str3
	.long	.L.str4
	.long	.L.str4
	.long	.L.str4
	.long	.L.str4
	.long	.L.str5
	.long	.L.str6
	.long	.L.str7
	.long	.L.str8
	.long	.L.str9
	.long	.L.str10
	.long	.L.str11
	.long	.L.str8
	.long	.L.str9
	.long	.L.str10
	.long	.L.str11
	.long	.L.str12
	.cc_bottom g_strTable.data
	.cc_top devDesc_Audio2.data,devDesc_Audio2
	.globl	devDesc_Audio2
	.align	8
	.type	devDesc_Audio2,@object
	.size	devDesc_Audio2, 18
devDesc_Audio2:
	.byte	18
	.byte	1
	.short	512
	.byte	239
	.byte	2
	.byte	1
	.byte	64
	.short	13482
	.short	1
	.short	1779
	.byte	1
	.byte	3
	.byte	0
	.byte	2
	.cc_bottom devDesc_Audio2.data
	.cc_top devDesc_Null.data,devDesc_Null
	.globl	devDesc_Null.globound
devDesc_Null.globound = 18
	.globl	devDesc_Null
	.align	8
	.type	devDesc_Null,@object
	.size	devDesc_Null, 18
devDesc_Null:
	.ascii	"\022\001\000\002\000\000\000@\2524\001\000\363\006\001\003\000\001"
	.cc_bottom devDesc_Null.data
	.cc_top devDesc_Audio2_01.data,devDesc_Audio2_01
	.globl	devDesc_Audio2_01
	.align	8
	.type	devDesc_Audio2_01,@object
	.size	devDesc_Audio2_01, 18
devDesc_Audio2_01:
	.byte	18
	.byte	1
	.short	512
	.byte	239
	.byte	2
	.byte	1
	.byte	64
	.short	13482
	.short	2
	.short	1779
	.byte	1
	.byte	3
	.byte	0
	.byte	2
	.cc_bottom devDesc_Audio2_01.data
	.cc_top devDesc_Null_01.data,devDesc_Null_01
	.globl	devDesc_Null_01.globound
devDesc_Null_01.globound = 18
	.globl	devDesc_Null_01
	.align	8
	.type	devDesc_Null_01,@object
	.size	devDesc_Null_01, 18
devDesc_Null_01:
	.ascii	"\022\001\000\002\000\000\000@\2524\001\000\363\006\001\003\000\001"
	.cc_bottom devDesc_Null_01.data
	.cc_top devQualDesc_Audio2.data,devQualDesc_Audio2
	.globl	devQualDesc_Audio2.globound
devQualDesc_Audio2.globound = 10
	.globl	devQualDesc_Audio2
	.align	8
	.type	devQualDesc_Audio2,@object
	.size	devQualDesc_Audio2, 10
devQualDesc_Audio2:
.asciiz"\n\006\000\002\357\002\001@\001"
	.cc_bottom devQualDesc_Audio2.data
	.cc_top devQualDesc_Null.data,devQualDesc_Null
	.globl	devQualDesc_Null.globound
devQualDesc_Null.globound = 10
	.globl	devQualDesc_Null
	.align	8
	.type	devQualDesc_Null,@object
	.size	devQualDesc_Null, 10
devQualDesc_Null:
.asciiz"\n\006\000\002\000\000\000@\001"
	.cc_bottom devQualDesc_Null.data
	.cc_top hidReportDescriptor.data,hidReportDescriptor
	.globl	hidReportDescriptor.globound
hidReportDescriptor.globound = 33
	.globl	hidReportDescriptor
	.align	8
	.type	hidReportDescriptor,@object
	.size	hidReportDescriptor, 33
hidReportDescriptor:
	.ascii	"\005\f\t\001\241\001\025\000%\001\t\260\t\265\t\266\t\351\t\352\t\342u\001\225\006\201\002\225\002\201\001\300"
	.cc_bottom hidReportDescriptor.data
	.cc_top cfgDesc_Audio2.data,cfgDesc_Audio2
	.globl	cfgDesc_Audio2
	.align	8
	.type	cfgDesc_Audio2,@object
	.size	cfgDesc_Audio2, 360
cfgDesc_Audio2:
	.byte	9
	.byte	2
	.short	360
	.byte	5
	.byte	1
	.byte	0
	.byte	192
	.byte	0
	.byte	8
	.byte	11
	.byte	0
	.byte	3
	.byte	1
	.byte	0
	.byte	32
	.byte	0
	.byte	9
	.byte	4
	.byte	0
	.byte	0
	.byte	0
	.byte	1
	.byte	1
	.byte	32
	.byte	3
	.byte	9
	.byte	36
	.byte	1
	.short	512
	.byte	8
	.short	135
	.byte	0
	.byte	8
	.byte	36
	.byte	10
	.byte	41
	.byte	3
	.byte	7
	.byte	0
	.byte	9
	.byte	8
	.byte	36
	.byte	11
	.byte	40
	.byte	1
	.byte	41
	.byte	3
	.byte	8
	.byte	17
	.byte	36
	.byte	2
	.byte	2
	.short	257
	.byte	0
	.byte	40
	.byte	4
	.long	0
	.byte	11
	.short	0
	.byte	6
	.byte	26
	.byte	36
	.byte	6
	.byte	10
	.byte	2
	.long	15
	.long	15
	.long	15
	.long	15
	.long	15
	.byte	0
	.byte	12
	.byte	36
	.byte	3
	.byte	20
	.short	769
	.byte	0
	.byte	10
	.byte	40
	.short	0
	.byte	0
	.byte	17
	.byte	36
	.byte	2
	.byte	1
	.short	513
	.byte	0
	.byte	40
	.byte	4
	.long	0
	.byte	15
	.short	0
	.byte	0
	.byte	26
	.byte	36
	.byte	6
	.byte	11
	.byte	1
	.long	15
	.long	15
	.long	15
	.long	15
	.long	15
	.byte	0
	.byte	12
	.byte	36
	.byte	3
	.byte	22
	.short	257
	.byte	0
	.byte	11
	.byte	40
	.short	0
	.byte	7
	.byte	9
	.byte	4
	.byte	1
	.byte	0
	.byte	0
	.byte	1
	.byte	2
	.byte	32
	.byte	4
	.byte	9
	.byte	4
	.byte	1
	.byte	1
	.byte	1
	.byte	1
	.byte	2
	.byte	32
	.byte	4
	.byte	16
	.byte	36
	.byte	1
	.byte	2
	.byte	0
	.byte	1
	.long	1
	.byte	4
	.long	0
	.byte	11
	.byte	6
	.byte	36
	.byte	2
	.byte	1
	.byte	4
	.byte	24
	.byte	7
	.byte	5
	.byte	1
	.byte	5
	.short	400
	.byte	1
	.byte	8
	.byte	37
	.byte	1
	.byte	0
	.byte	0
	.byte	2
	.short	8
	.byte	9
	.byte	4
	.byte	1
	.byte	2
	.byte	1
	.byte	1
	.byte	2
	.byte	32
	.byte	4
	.byte	16
	.byte	36
	.byte	1
	.byte	2
	.byte	0
	.byte	1
	.long	1
	.byte	4
	.long	0
	.byte	11
	.byte	6
	.byte	36
	.byte	2
	.byte	1
	.byte	2
	.byte	16
	.byte	7
	.byte	5
	.byte	1
	.byte	5
	.short	200
	.byte	1
	.byte	8
	.byte	37
	.byte	1
	.byte	0
	.byte	0
	.byte	2
	.short	8
	.byte	9
	.byte	4
	.byte	2
	.byte	0
	.byte	0
	.byte	1
	.byte	2
	.byte	32
	.byte	5
	.byte	9
	.byte	4
	.byte	2
	.byte	1
	.byte	1
	.byte	1
	.byte	2
	.byte	32
	.byte	5
	.byte	16
	.byte	36
	.byte	1
	.byte	22
	.byte	0
	.byte	1
	.long	1
	.byte	4
	.long	0
	.byte	15
	.byte	6
	.byte	36
	.byte	2
	.byte	1
	.byte	4
	.byte	24
	.byte	7
	.byte	5
	.byte	129
	.byte	37
	.short	400
	.byte	1
	.byte	8
	.byte	37
	.byte	1
	.byte	0
	.byte	0
	.byte	2
	.short	8
	.ascii	"\t\004\003\000\000\376\001\001\n\t!\007\372\000@\000\020\001"
	.byte	9
	.byte	4
	.byte	4
	.byte	0
	.byte	1
	.byte	3
	.byte	0
	.byte	0
	.byte	0
.asciiz"\t!\020\001\000\001\"!"
	.byte	7
	.byte	5
	.byte	130
	.byte	3
	.short	64
	.byte	8
	.cc_bottom cfgDesc_Audio2.data
	.cc_top hidDescriptor.data,hidDescriptor
	.globl	hidDescriptor.globound
hidDescriptor.globound = 9
	.globl	hidDescriptor
	.align	8
	.type	hidDescriptor,@object
	.size	hidDescriptor, 9
hidDescriptor:
.asciiz"\t!\020\001\000\001\"!"
	.cc_bottom hidDescriptor.data
	.cc_top cfgDesc_Null.data,cfgDesc_Null
	.globl	cfgDesc_Null.globound
cfgDesc_Null.globound = 19
	.globl	cfgDesc_Null
	.align	8
	.type	cfgDesc_Null,@object
	.size	cfgDesc_Null, 19
cfgDesc_Null:
	.ascii	"\t\002\022\000\001\001\000\300\000\t\004\000\000\000\000\000\000\000\t"
	.cc_bottom cfgDesc_Null.data
	.cc_top DFUdevDesc.data,DFUdevDesc
	.globl	DFUdevDesc.globound
DFUdevDesc.globound = 18
	.globl	DFUdevDesc
	.align	8
	.type	DFUdevDesc,@object
	.size	DFUdevDesc, 18
DFUdevDesc:
	.ascii	"\022\001\000\002\000\000\000@\2524\001\000\363\006\001\003\000\001"
	.cc_bottom DFUdevDesc.data
	.cc_top DFUcfgDesc.data,DFUcfgDesc
	.globl	DFUcfgDesc.globound
DFUcfgDesc.globound = 27
	.globl	DFUcfgDesc
	.align	8
	.type	DFUcfgDesc,@object
	.size	DFUcfgDesc, 27
DFUcfgDesc:
	.ascii	"\t\002\033\000\001\001\000\3002\t\004\000\000\000\376\001\002\000\t!\007\372\000@\000\020\001"
	.cc_bottom DFUcfgDesc.data
	.section	.dp.bss.4,"awd",@nobits
	.cc_top DFU_mode_active.data,DFU_mode_active
	.globl	DFU_mode_active
	.align	4
	.type	DFU_mode_active,@object
	.size	DFU_mode_active, 4
DFU_mode_active:
	.long	0
	.cc_bottom DFU_mode_active.data
	.cc_top g_curStreamAlt_Out.data,g_curStreamAlt_Out
	.globl	g_curStreamAlt_Out
	.align	4
	.type	g_curStreamAlt_Out,@object
	.size	g_curStreamAlt_Out, 4
g_curStreamAlt_Out:
	.long	0
	.cc_bottom g_curStreamAlt_Out.data
	.cc_top g_curStreamAlt_In.data,g_curStreamAlt_In
	.globl	g_curStreamAlt_In
	.align	4
	.type	g_curStreamAlt_In,@object
	.size	g_curStreamAlt_In, 4
g_curStreamAlt_In:
	.long	0
	.cc_bottom g_curStreamAlt_In.data
	.cc_top g_curUsbSpeed.data,g_curUsbSpeed
	.globl	g_curUsbSpeed
	.align	4
	.type	g_curUsbSpeed,@object
	.size	g_curUsbSpeed, 4
g_curUsbSpeed:
	.long	0
	.cc_bottom g_curUsbSpeed.data
	.section	.cp.rodata,"ac",@progbits
	.cc_top g_subSlot_Out_HS.data,g_subSlot_Out_HS
	.globl	g_subSlot_Out_HS.globound
g_subSlot_Out_HS.globound = 2
	.globl	g_subSlot_Out_HS
	.align	8
	.type	g_subSlot_Out_HS,@object
	.size	g_subSlot_Out_HS, 8
g_subSlot_Out_HS:
	.long	4
	.long	2
	.cc_bottom g_subSlot_Out_HS.data
	.cc_top g_subSlot_Out_FS.data,g_subSlot_Out_FS
	.globl	g_subSlot_Out_FS.globound
g_subSlot_Out_FS.globound = 2
	.globl	g_subSlot_Out_FS
	.align	8
	.type	g_subSlot_Out_FS,@object
	.size	g_subSlot_Out_FS, 8
g_subSlot_Out_FS:
	.long	3
	.long	2
	.cc_bottom g_subSlot_Out_FS.data
	.cc_top g_subSlot_In_HS.data,g_subSlot_In_HS
	.globl	g_subSlot_In_HS.globound
g_subSlot_In_HS.globound = 1
	.globl	g_subSlot_In_HS
	.align	8
	.type	g_subSlot_In_HS,@object
	.size	g_subSlot_In_HS, 4
g_subSlot_In_HS:
	.long	4
	.cc_bottom g_subSlot_In_HS.data
	.cc_top g_subSlot_In_FS.data,g_subSlot_In_FS
	.globl	g_subSlot_In_FS.globound
g_subSlot_In_FS.globound = 1
	.globl	g_subSlot_In_FS
	.align	8
	.type	g_subSlot_In_FS,@object
	.size	g_subSlot_In_FS, 4
g_subSlot_In_FS:
	.long	3
	.cc_bottom g_subSlot_In_FS.data
	.cc_top g_sampRes_Out_HS.data,g_sampRes_Out_HS
	.globl	g_sampRes_Out_HS.globound
g_sampRes_Out_HS.globound = 2
	.globl	g_sampRes_Out_HS
	.align	8
	.type	g_sampRes_Out_HS,@object
	.size	g_sampRes_Out_HS, 8
g_sampRes_Out_HS:
	.long	24
	.long	16
	.cc_bottom g_sampRes_Out_HS.data
	.cc_top g_sampRes_Out_FS.data,g_sampRes_Out_FS
	.globl	g_sampRes_Out_FS.globound
g_sampRes_Out_FS.globound = 2
	.globl	g_sampRes_Out_FS
	.align	8
	.type	g_sampRes_Out_FS,@object
	.size	g_sampRes_Out_FS, 8
g_sampRes_Out_FS:
	.long	24
	.long	16
	.cc_bottom g_sampRes_Out_FS.data
	.cc_top g_sampRes_In_HS.data,g_sampRes_In_HS
	.globl	g_sampRes_In_HS.globound
g_sampRes_In_HS.globound = 1
	.globl	g_sampRes_In_HS
	.align	8
	.type	g_sampRes_In_HS,@object
	.size	g_sampRes_In_HS, 4
g_sampRes_In_HS:
	.long	24
	.cc_bottom g_sampRes_In_HS.data
	.cc_top g_sampRes_In_FS.data,g_sampRes_In_FS
	.globl	g_sampRes_In_FS.globound
g_sampRes_In_FS.globound = 1
	.globl	g_sampRes_In_FS
	.align	8
	.type	g_sampRes_In_FS,@object
	.size	g_sampRes_In_FS, 4
g_sampRes_In_FS:
	.long	24
	.cc_bottom g_sampRes_In_FS.data
	.cc_top g_dataFormat_Out.data,g_dataFormat_Out
	.globl	g_dataFormat_Out.globound
g_dataFormat_Out.globound = 2
	.globl	g_dataFormat_Out
	.align	8
	.type	g_dataFormat_Out,@object
	.size	g_dataFormat_Out, 8
g_dataFormat_Out:
	.long	1
	.long	1
	.cc_bottom g_dataFormat_Out.data
	.cc_top g_dataFormat_In.data,g_dataFormat_In
	.globl	g_dataFormat_In.globound
g_dataFormat_In.globound = 1
	.globl	g_dataFormat_In
	.align	8
	.type	g_dataFormat_In,@object
	.size	g_dataFormat_In, 4
g_dataFormat_In:
	.long	1
	.cc_bottom g_dataFormat_In.data
	.cc_top g_chanCount_In_HS.data,g_chanCount_In_HS
	.globl	g_chanCount_In_HS.globound
g_chanCount_In_HS.globound = 1
	.globl	g_chanCount_In_HS
	.align	8
	.type	g_chanCount_In_HS,@object
	.size	g_chanCount_In_HS, 4
g_chanCount_In_HS:
	.long	4
	.cc_bottom g_chanCount_In_HS.data
	.section	.dp.bss,"awd",@nobits
	.cc_top volsOut.data,volsOut
	.globl	volsOut.globound
volsOut.globound = 5
	.globl	volsOut
	.align	8
	.type	volsOut,@object
	.size	volsOut, 20
volsOut:
	.space	20
	.cc_bottom volsOut.data
	.cc_top mutesOut.data,mutesOut
	.globl	mutesOut.globound
mutesOut.globound = 5
	.globl	mutesOut
	.align	8
	.type	mutesOut,@object
	.size	mutesOut, 20
mutesOut:
	.space	20
	.cc_bottom mutesOut.data
	.cc_top volsIn.data,volsIn
	.globl	volsIn.globound
volsIn.globound = 5
	.globl	volsIn
	.align	8
	.type	volsIn,@object
	.size	volsIn, 20
volsIn:
	.space	20
	.cc_bottom volsIn.data
	.cc_top mutesIn.data,mutesIn
	.globl	mutesIn.globound
mutesIn.globound = 5
	.globl	mutesIn
	.align	8
	.type	mutesIn,@object
	.size	mutesIn, 20
mutesIn:
	.space	20
	.cc_bottom mutesIn.data
	.cc_top mixer1Weights.data,mixer1Weights
	.globl	mixer1Weights.globound
mixer1Weights.globound = 144
	.globl	mixer1Weights
	.align	8
	.type	mixer1Weights,@object
	.size	mixer1Weights, 288
mixer1Weights:
	.space	288
	.cc_bottom mixer1Weights.data
	.cc_top channelMapAud.data,channelMapAud
	.globl	channelMapAud.globound
channelMapAud.globound = 4
	.globl	channelMapAud
	.align	8
	.type	channelMapAud,@object
	.size	channelMapAud, 4
channelMapAud:
	.space	4
	.cc_bottom channelMapAud.data
	.cc_top channelMapUsb.data,channelMapUsb
	.globl	channelMapUsb.globound
channelMapUsb.globound = 4
	.globl	channelMapUsb
	.align	8
	.type	channelMapUsb,@object
	.size	channelMapUsb, 4
channelMapUsb:
	.space	4
	.cc_bottom channelMapUsb.data
	.cc_top channelMap.data,channelMap
	.globl	channelMap.globound
channelMap.globound = 8
	.globl	channelMap
	.align	8
	.type	channelMap,@object
	.size	channelMap, 8
channelMap:
	.space	8
	.cc_bottom channelMap.data
	.cc_top mixSel.data,mixSel
	.globl	mixSel.globound
mixSel.globound = 0
	.globl	mixSel
	.align	8
	.type	mixSel,@object
	.size	mixSel, 0
mixSel:
	.space	4
	.cc_bottom mixSel.data
	.cc_top mixer1Crossbar.data,mixer1Crossbar
	.globl	mixer1Crossbar.globound
mixer1Crossbar.globound = 18
	.globl	mixer1Crossbar
	.align	8
	.type	mixer1Crossbar,@object
	.size	mixer1Crossbar, 18
mixer1Crossbar:
	.space	18
	.cc_bottom mixer1Crossbar.data
	.section	.cp.rodata,"ac",@progbits
.Ldebug_end0:
	.section	.dp.bss.4,"awd",@nobits
.Ldebug_end1:
	.section	.dp.bss,"awd",@nobits
.Ldebug_end2:
	.section	.dp.data,"awd",@progbits
.Ldebug_end3:
	.text
.Ldebug_end4:
	.file	10 "/Applications/XMOS_XTC_15.3.1/target/include/xccompat.h"
	.file	11 "/Users/cwu/Desktop/Audio_Sound/module_usb_shared/src/usb_std_requests.h"
	.section	.trap_info,"",@progbits
.Ltrap_info_entries_start0:
	.long	.Ltrap_info_entries_end0-.Ltrap_info_entries_start0
	.long	1
.Ltrap_info_entries_end0: