	.text
	.file	"i2c_shared.c"
	.text
	.globl	i2c_shared_master_init
	.align	4
	.type	i2c_shared_master_init,@function
	.cc_top i2c_shared_master_init.function,i2c_shared_master_init
i2c_shared_master_init:
.Lfunc_begin0:
	.loc	2 7 0
	.cfi_startproc
	.issue_mode dual
	{
		nop
		dualentsp 2
	}
.Ltmp0:
	.cfi_def_cfa_offset 8
.Ltmp1:
	.cfi_offset 15, 0
	.loc	2 9 5 prologue_end
.Ltmp2:
	bl i2c_master_init
.Ltmp3:
	{
		nop
		retsp 2
	}
	.loc	2 11 1
	# RETURN_REG_HOLDER
.Ltmp4:
	.cc_bottom i2c_shared_master_init.function
	.set	i2c_shared_master_init.nstackwords,(i2c_master_init.nstackwords + 2)
	.globl	i2c_shared_master_init.nstackwords
	.set	i2c_shared_master_init.maxcores,i2c_master_init.maxcores $M 1
	.globl	i2c_shared_master_init.maxcores
	.set	i2c_shared_master_init.maxtimers,i2c_master_init.maxtimers $M 0
	.globl	i2c_shared_master_init.maxtimers
	.set	i2c_shared_master_init.maxchanends,i2c_master_init.maxchanends $M 0
	.globl	i2c_shared_master_init.maxchanends
.Ltmp5:
	.size	i2c_shared_master_init, .Ltmp5-i2c_shared_master_init
.Lfunc_end0:
	.cfi_endproc

	.globl	i2c_shared_master_rx
	.align	4
	.type	i2c_shared_master_rx,@function
	.cc_top i2c_shared_master_rx.function,i2c_shared_master_rx
i2c_shared_master_rx:
.Lfunc_begin1:
	.loc	2 17 0
	.cfi_startproc
	.issue_mode dual
	{
		nop
		dualentsp 8
	}
.Ltmp6:
	.cfi_def_cfa_offset 32
.Ltmp7:
	.cfi_offset 15, 0
	std r5, r4, sp[1]
.Ltmp8:
	.cfi_offset 4, -24
.Ltmp9:
	.cfi_offset 5, -20
	std r7, r6, sp[2]
.Ltmp10:
	.cfi_offset 6, -16
.Ltmp11:
	.cfi_offset 7, -12
.Ltmp12:
	.cfi_offset 8, -8
.Ltmp13:
	{
		mov r4, r3
		stw r8, sp[6]
	}
.Ltmp14:
	{
		mov r5, r2
		mov r6, r1
	}
.Ltmp15:
	{
		mov r7, r0
		nop
	}
.Ltmp16:
	.loc	2 19 5 prologue_end
	ldaw r8, dp[i2c_swlock]
	{
		mov r0, r8
		nop
	}
	bl swlock_acquire
.Ltmp17:
	.loc	2 20 14
	{
		mov r0, r6
		mov r1, r5
	}
.Ltmp18:
	{
		mov r2, r4
		mov r3, r7
	}
.Ltmp19:
	bl i2c_master_rx
.Ltmp20:
	{
		mov r4, r0
		mov r0, r8
	}
.Ltmp21:
	.loc	2 21 5
	bl swlock_release
	.loc	2 22 5
	{
		mov r0, r4
		ldw r8, sp[6]
	}
	ldd r7, r6, sp[2]
	ldd r5, r4, sp[1]
	{
		nop
		retsp 8
	}
	# RETURN_REG_HOLDER
.Ltmp22:
	.cc_bottom i2c_shared_master_rx.function
	.set	i2c_shared_master_rx.nstackwords,((swlock_acquire.nstackwords $M i2c_master_rx.nstackwords $M swlock_release.nstackwords) + 8)
	.globl	i2c_shared_master_rx.nstackwords
	.set	i2c_shared_master_rx.maxcores,i2c_master_rx.maxcores $M swlock_acquire.maxcores $M swlock_release.maxcores $M 1
	.globl	i2c_shared_master_rx.maxcores
	.set	i2c_shared_master_rx.maxtimers,i2c_master_rx.maxtimers $M swlock_acquire.maxtimers $M swlock_release.maxtimers $M 0
	.globl	i2c_shared_master_rx.maxtimers
	.set	i2c_shared_master_rx.maxchanends,i2c_master_rx.maxchanends $M swlock_acquire.maxchanends $M swlock_release.maxchanends $M 0
	.globl	i2c_shared_master_rx.maxchanends
.Ltmp23:
	.size	i2c_shared_master_rx, .Ltmp23-i2c_shared_master_rx
.Lfunc_end1:
	.cfi_endproc

	.globl	i2c_shared_master_read_reg
	.align	4
	.type	i2c_shared_master_read_reg,@function
	.cc_top i2c_shared_master_read_reg.function,i2c_shared_master_read_reg
i2c_shared_master_read_reg:
.Lfunc_begin2:
	.loc	2 27 0
	.cfi_startproc
	.issue_mode dual
	{
		nop
		dualentsp 8
	}
.Ltmp24:
	.cfi_def_cfa_offset 32
.Ltmp25:
	.cfi_offset 15, 0
	std r5, r4, sp[1]
.Ltmp26:
	.cfi_offset 4, -24
.Ltmp27:
	.cfi_offset 5, -20
	std r7, r6, sp[2]
.Ltmp28:
	.cfi_offset 6, -16
.Ltmp29:
	.cfi_offset 7, -12
	std r9, r8, sp[3]
.Ltmp30:
	.cfi_offset 8, -8
.Ltmp31:
	.cfi_offset 9, -4
.Ltmp32:
	{
		mov r4, r3
		mov r5, r2
	}
.Ltmp33:
	{
		mov r6, r1
		mov r7, r0
	}
.Ltmp34:
	{
		nop
		ldw r8, sp[9]
	}
	.loc	2 29 5 prologue_end
.Ltmp35:
	ldaw r9, dp[i2c_swlock]
	{
		mov r0, r9
		nop
	}
	bl swlock_acquire
.Ltmp36:
	.loc	2 30 14
	{
		mov r0, r6
		stw r7, sp[1]
	}
.Ltmp37:
	{
		mov r1, r5
		mov r2, r4
	}
.Ltmp38:
	{
		mov r3, r8
		nop
	}
	bl i2c_master_read_reg
.Ltmp39:
	{
		mov r4, r0
		mov r0, r9
	}
.Ltmp40:
	.loc	2 31 5
	bl swlock_release
	.loc	2 32 5
	{
		mov r0, r4
		nop
	}
	ldd r9, r8, sp[3]
	ldd r7, r6, sp[2]
	ldd r5, r4, sp[1]
	{
		nop
		retsp 8
	}
.Ltmp41:
	# RETURN_REG_HOLDER
.Ltmp42:
	.cc_bottom i2c_shared_master_read_reg.function
	.set	i2c_shared_master_read_reg.nstackwords,((swlock_acquire.nstackwords $M i2c_master_read_reg.nstackwords $M swlock_release.nstackwords) + 8)
	.globl	i2c_shared_master_read_reg.nstackwords
	.set	i2c_shared_master_read_reg.maxcores,i2c_master_read_reg.maxcores $M swlock_acquire.maxcores $M swlock_release.maxcores $M 1
	.globl	i2c_shared_master_read_reg.maxcores
	.set	i2c_shared_master_read_reg.maxtimers,i2c_master_read_reg.maxtimers $M swlock_acquire.maxtimers $M swlock_release.maxtimers $M 0
	.globl	i2c_shared_master_read_reg.maxtimers
	.set	i2c_shared_master_read_reg.maxchanends,i2c_master_read_reg.maxchanends $M swlock_acquire.maxchanends $M swlock_release.maxchanends $M 0
	.globl	i2c_shared_master_read_reg.maxchanends
.Ltmp43:
	.size	i2c_shared_master_read_reg, .Ltmp43-i2c_shared_master_read_reg
.Lfunc_end2:
	.cfi_endproc

	.globl	i2c_shared_master_write_reg
	.align	4
	.type	i2c_shared_master_write_reg,@function
	.cc_top i2c_shared_master_write_reg.function,i2c_shared_master_write_reg
i2c_shared_master_write_reg:
.Lfunc_begin3:
	.loc	2 39 0
	.cfi_startproc
	.issue_mode dual
	{
		nop
		dualentsp 8
	}
.Ltmp44:
	.cfi_def_cfa_offset 32
.Ltmp45:
	.cfi_offset 15, 0
	std r5, r4, sp[1]
.Ltmp46:
	.cfi_offset 4, -24
.Ltmp47:
	.cfi_offset 5, -20
	std r7, r6, sp[2]
.Ltmp48:
	.cfi_offset 6, -16
.Ltmp49:
	.cfi_offset 7, -12
	std r9, r8, sp[3]
.Ltmp50:
	.cfi_offset 8, -8
.Ltmp51:
	.cfi_offset 9, -4
.Ltmp52:
	{
		mov r4, r3
		mov r5, r2
	}
.Ltmp53:
	{
		mov r6, r1
		mov r7, r0
	}
.Ltmp54:
	{
		nop
		ldw r8, sp[9]
	}
	.loc	2 41 5 prologue_end
.Ltmp55:
	ldaw r9, dp[i2c_swlock]
	{
		mov r0, r9
		nop
	}
	bl swlock_acquire
.Ltmp56:
	.loc	2 42 14
	{
		mov r0, r6
		stw r7, sp[1]
	}
.Ltmp57:
	{
		mov r1, r5
		mov r2, r4
	}
.Ltmp58:
	{
		mov r3, r8
		nop
	}
	bl i2c_master_write_reg
.Ltmp59:
	{
		mov r4, r0
		mov r0, r9
	}
.Ltmp60:
	.loc	2 43 5
	bl swlock_release
	.loc	2 44 5
	{
		mov r0, r4
		nop
	}
	ldd r9, r8, sp[3]
	ldd r7, r6, sp[2]
	ldd r5, r4, sp[1]
	{
		nop
		retsp 8
	}
.Ltmp61:
	# RETURN_REG_HOLDER
.Ltmp62:
	.cc_bottom i2c_shared_master_write_reg.function
	.set	i2c_shared_master_write_reg.nstackwords,((swlock_acquire.nstackwords $M i2c_master_write_reg.nstackwords $M swlock_release.nstackwords) + 8)
	.globl	i2c_shared_master_write_reg.nstackwords
	.set	i2c_shared_master_write_reg.maxcores,i2c_master_write_reg.maxcores $M swlock_acquire.maxcores $M swlock_release.maxcores $M 1
	.globl	i2c_shared_master_write_reg.maxcores
	.set	i2c_shared_master_write_reg.maxtimers,i2c_master_write_reg.maxtimers $M swlock_acquire.maxtimers $M swlock_release.maxtimers $M 0
	.globl	i2c_shared_master_write_reg.maxtimers
	.set	i2c_shared_master_write_reg.maxchanends,i2c_master_write_reg.maxchanends $M swlock_acquire.maxchanends $M swlock_release.maxchanends $M 0
	.globl	i2c_shared_master_write_reg.maxchanends
.Ltmp63:
	.size	i2c_shared_master_write_reg, .Ltmp63-i2c_shared_master_write_reg
.Lfunc_end3:
	.cfi_endproc

	.section	.dp.bss.4,"awd",@nobits
	.cc_top i2c_swlock.data,i2c_swlock
	.globl	i2c_swlock
	.align	4
	.type	i2c_swlock,@object
	.size	i2c_swlock, 4
i2c_swlock:
	.long	0
	.cc_bottom i2c_swlock.data
.Ldebug_end0:
	.text
.Ldebug_end1:
	.file	3 "/Applications/XMOS_XTC_15.3.1/target/include/xccompat.h"
	.file	4 "/Users/cwu/Desktop/Audio_Sound/module_i2c_simple/src/i2c.h"
	.section	.trap_info,"",@progbits
.Ltrap_info_entries_start0:
	.long	.Ltrap_info_entries_end0-.Ltrap_info_entries_start0
	.long	1
.Ltrap_info_entries_end0: