	.text
	.file	"/Users/cwu/Desktop/Audio_Sound/module_usb_audio/usb_buffer/usb_buffer.xc"
                                        # Start of file scope inline assembly
	.inline_definition delay_seconds
	.inline_definition delay_milliseconds
	.inline_definition delay_microseconds
	.inline_definition array_to_xc_ptr
	.inline_definition XUD_SetReady_Out
	.inline_definition XUD_SetReady_OutPtr
	.inline_definition XUD_SetReady_InPtr
	.inline_definition XUD_SetReady_In
	.set usage.anon.0,0
	.set usage.anon.1,0
	.set usage.anon.2,0
	.set usage.anon.3,0
	.set usage.anon.4,0
	.set usage.anon.5,0
	.set usage.anon.6,0
	.set usage.anon.7,0
	.set usage.anon.8,0
	.globread buffer,fb_clocks,"/Users/cwu/Desktop/Audio_Sound/module_usb_audio/usb_buffer/usb_buffer.xc:242:6: note: object used here\n    (fb_clocks, unsigned[])[0] = 0;\n     ^~~~~~~~~"
	.globwrite buffer,fb_clocks,0,4,"/Users/cwu/Desktop/Audio_Sound/module_usb_audio/usb_buffer/usb_buffer.xc:242:5: note: object used here (bytes 0..4)\n    (fb_clocks, unsigned[])[0] = 0;\n    ^~~~~~~~~~~~~~~~~~~~~~~~~~"
	.globwrite buffer,g_speed,"/Users/cwu/Desktop/Audio_Sound/module_usb_audio/usb_buffer/usb_buffer.xc:330:29: note: object used here\n                            g_speed = mid<<16;\n                            ^~~~~~~"
	.globwrite buffer,g_hidData,"/Users/cwu/Desktop/Audio_Sound/module_usb_audio/usb_buffer/usb_buffer.xc:258:29: note: object used here\n    XUD_SetReady_In(ep_hid, g_hidData, 1);\n                            ^~~~~~~~~"
	.call buffer,usage.anon.8
	.call buffer,usage.anon.7
	.call buffer,XUD_SetData_Select
	.call buffer,XUD_InitEp
	.call buffer,XUD_GetData_Select
	.call buffer,UserReadHIDButtons
	.call buffer,GetADCCounts
	.call usage.anon.7,usage.anon.6
	.call usage.anon.2,delay_ticks_longlong
	.call usage.anon.1,delay_ticks_longlong
	.call usage.anon.0,delay_ticks_longlong
	.set usage.anon.3.locnoside, 0
	.set usage.anon.4.locnoside, 0
	.set usage.anon.7.locnoside, 0
	.set usage.anon.8.locnoside, 0
	.set buffer.locnoside, 0
	.set buffer.locnoglobalaccess, 0
	.globpassesref usage.anon.7, g_hidData,"/Users/cwu/Desktop/Audio_Sound/module_usb_audio/usb_buffer/usb_buffer.xc:730:17: error: call to `XUD_SetReady_In\' in `buffer\' makes alias of global \'g_hidData\'\n                XUD_SetReady_In(ep_hid, g_hidData, 1);\n                ^~~~~~~~~~~~~~~~~~~~~~~~~~~~~~~~~~~~~"
	.globpassesref UserReadHIDButtons, g_hidData,"/Users/cwu/Desktop/Audio_Sound/module_usb_audio/usb_buffer/usb_buffer.xc:729:17: error: call to `UserReadHIDButtons\' in `buffer\' makes alias of global \'g_hidData\'\n                UserReadHIDButtons(g_hidData);\n                ^~~~~~~~~~~~~~~~~~~~~~~~~~~~~"
	.globpassesref usage.anon.7, g_hidData,"/Users/cwu/Desktop/Audio_Sound/module_usb_audio/usb_buffer/usb_buffer.xc:258:5: error: call to `XUD_SetReady_In\' in `buffer\' makes alias of global \'g_hidData\'\n    XUD_SetReady_In(ep_hid, g_hidData, 1);\n    ^~~~~~~~~~~~~~~~~~~~~~~~~~~~~~~~~~~~~"

                                        # End of file scope inline assembly
	.section	.cp.rodata.cst4,"aMc",@progbits,4
	.cc_top .LCPI0_0.data,.LCPI0_0
	.align	4
	.type	.LCPI0_0,@object
	.size	.LCPI0_0, 4
.LCPI0_0:
	.long	24576000                # 0x1770000
	.cc_bottom .LCPI0_0.data
	.cc_top .LCPI0_1.data,.LCPI0_1
	.align	4
	.type	.LCPI0_1,@object
	.size	.LCPI0_1, 4
.LCPI0_1:
	.long	305419896               # 0x12345678
	.cc_bottom .LCPI0_1.data
	.cc_top .LCPI0_2.data,.LCPI0_2
	.align	4
	.type	.LCPI0_2,@object
	.size	.LCPI0_2, 4
.LCPI0_2:
	.long	22579200                # 0x1588800
	.cc_bottom .LCPI0_2.data
	.text
	.globl	buffer
	.align	4
	.type	buffer,@function
	.cc_top buffer.function,buffer
buffer:                                 # @buffer
.Lfunc_begin0:
	.loc	1 134 0                 # /Users/cwu/Desktop/Audio_Sound/module_usb_audio/usb_buffer/usb_buffer.xc:134:0
	.cfi_startproc
	.issue_mode dual
# BB#0:                                 # %allocas
.Lxtalabel0:
	{
		nop
		dualentsp 28
	}
.Ltmp0:
	.cfi_def_cfa_offset 112
.Ltmp1:
	.cfi_offset 15, 0
	std r5, r4, sp[10]              # 4-byte Folded Spill
.Ltmp2:
	.cfi_offset 4, -32
.Ltmp3:
	.cfi_offset 5, -28
	std r7, r6, sp[11]              # 4-byte Folded Spill
.Ltmp4:
	.cfi_offset 6, -24
.Ltmp5:
	.cfi_offset 7, -20
	{
		nop
		stw r8, sp[24]
	}
	{
		nop
		stw r9, sp[25]
	}
.Ltmp6:
	.cfi_offset 8, -16
.Ltmp7:
	.cfi_offset 9, -12
.Ltmp8:
	.cfi_offset 10, -8
	#DEBUG_VALUE: buffer:c_aud_out <- R0
	#DEBUG_VALUE: buffer:c_aud_in <- R1
	#DEBUG_VALUE: buffer:c_sof <- R2
	#DEBUG_VALUE: buffer:c_aud_ctl <- R3
.Ltmp9:
	#DEBUG_VALUE: buffer:c_aud_ctl <- R4
	{
		mov r4, r3
		stw r10, sp[26]
	}
.Ltmp10:
	#DEBUG_VALUE: buffer:c_sof <- R5
	#DEBUG_VALUE: buffer:c_aud_in <- R6
	{
		mov r5, r2
		mov r6, r1
	}
.Ltmp11:
	#DEBUG_VALUE: buffer:c_aud_out <- R7
	#DEBUG_VALUE: buffer:p_off_mclk <- undef
	#DEBUG_VALUE: buffer:c_hid <- R8
	{
		mov r7, r0
		ldw r8, sp[30]
	}
.Ltmp12:
	.loc	1 135 0 prologue_end    # /Users/cwu/Desktop/Audio_Sound/module_usb_audio/usb_buffer/usb_buffer.xc:135:0
.Lxta.call_labels0:
	bl XUD_InitEp
.Ltmp13:
	#DEBUG_VALUE: ep_aud_out <- [SP+56]
	#DEBUG_VALUE: ep_aud_out <- undef
	{
		mov r0, r6
		stw r0, sp[14]
	}
	.loc	1 136 0                 # /Users/cwu/Desktop/Audio_Sound/module_usb_audio/usb_buffer/usb_buffer.xc:136:0
.Ltmp14:
.Lxta.call_labels1:
	bl XUD_InitEp
	{
		mov r10, r0
		nop
	}
.Ltmp15:
	#DEBUG_VALUE: ep_aud_in <- R10
	.loc	1 160 0                 # /Users/cwu/Desktop/Audio_Sound/module_usb_audio/usb_buffer/usb_buffer.xc:160:0
	{
		mov r0, r8
		stw r10, sp[13]
	}
.Lxta.call_labels2:
	bl XUD_InitEp
.Ltmp16:
	#DEBUG_VALUE: aud_from_host_buffer <- 0
	#DEBUG_VALUE: mod_from_last_time <- 0
	#DEBUG_VALUE: freqChange <- 0
	#DEBUG_VALUE: sofCount <- 0
	#DEBUG_VALUE: remnant <- 0
	#DEBUG_VALUE: bufferIn <- 1
	#DEBUG_VALUE: clockcounter <- 0
	#DEBUG_VALUE: clocks <- 0
	#DEBUG_VALUE: lastClock <- 0
	#DEBUG_VALUE: masterClockFreq <- 24576000
	#DEBUG_VALUE: sampleFreq <- 48000
	#DEBUG_VALUE: ep_hid <- R9
	#DEBUG_VALUE: XUD_SetReady_In:ep <- R9
	#DEBUG_VALUE: XUD_SetReady_InPtr:ep <- R9
	#DEBUG_VALUE: XUD_SetReady_In:ep <- R9
	#DEBUG_VALUE: XUD_SetReady_InPtr:ep <- R9
	{
		mov r9, r0
		ldw r0, sp[14]
	}
.Ltmp17:
	.loc	1 226 0                 # /Users/cwu/Desktop/Audio_Sound/module_usb_audio/usb_buffer/usb_buffer.xc:226:0
	#APP
	stw r0, dp[aud_from_host_usb_ep]
	#NO_APP
.Ltmp18:
	#DEBUG_VALUE: ep_aud_out <- [SP+56]
	.loc	1 227 0                 # /Users/cwu/Desktop/Audio_Sound/module_usb_audio/usb_buffer/usb_buffer.xc:227:0
	#APP
	stw r10, dp[aud_to_host_usb_ep]
	#NO_APP
.Ltmp19:
	#DEBUG_VALUE: ep_aud_in <- [SP+52]
	.loc	1 228 0                 # /Users/cwu/Desktop/Audio_Sound/module_usb_audio/usb_buffer/usb_buffer.xc:228:0
	#APP
	stw r4, dp[buffer_aud_ctl_chan]
	#NO_APP
	{
		mkmsk r0, 1
		nop
	}
	.loc	1 235 0                 # /Users/cwu/Desktop/Audio_Sound/module_usb_audio/usb_buffer/usb_buffer.xc:235:0
	#APP
	stw r0, dp[g_aud_from_host_flag]
	#NO_APP
	.loc	1 239 0                 # /Users/cwu/Desktop/Audio_Sound/module_usb_audio/usb_buffer/usb_buffer.xc:239:0
	#APP
	stw r0, dp[g_aud_to_host_flag]
	#NO_APP
	{
		ldc r3, 0
		nop
	}
	.loc	1 242 0                 # /Users/cwu/Desktop/Audio_Sound/module_usb_audio/usb_buffer/usb_buffer.xc:242:0
	stw r3, dp[fb_clocks]
.Ltmp20:
	#DEBUG_VALUE: XUD_SetReady_In:len <- 1
	.loc	2 508 0                 # /Users/cwu/Desktop/Audio_Sound/module_xud/include/xud.h:508:0
	ldaw r10, dp[g_hidData]
	#APP
	mov r0, r10
	#NO_APP
.Ltmp21:
	#DEBUG_VALUE: XUD_SetReady_InPtr:len <- 1
	#DEBUG_VALUE: XUD_SetReady_InPtr:addr <- R0
	#DEBUG_VALUE: addr <- R0
	.loc	2 463 0                 # /Users/cwu/Desktop/Audio_Sound/module_xud/include/xud.h:463:0
	#APP
	ldw r1, r9[9]
	#NO_APP
.Ltmp22:
	#DEBUG_VALUE: XUD_SetReady_In:buffer <- R10
	#DEBUG_VALUE: reset <- R1
	bt r1, .LBB0_2
.Ltmp23:
# BB#1:                                 # %ifdone.i.i
.Lxtalabel1:
	#DEBUG_VALUE: buffer:c_aud_out <- R7
	#DEBUG_VALUE: buffer:c_aud_in <- R6
	#DEBUG_VALUE: buffer:c_sof <- R5
	#DEBUG_VALUE: buffer:c_aud_ctl <- R4
	#DEBUG_VALUE: buffer:c_hid <- R8
	#DEBUG_VALUE: buffer:p_off_mclk <- undef
	#DEBUG_VALUE: ep_aud_out <- [SP+56]
	#DEBUG_VALUE: ep_aud_in <- [SP+52]
	#DEBUG_VALUE: XUD_SetReady_InPtr:ep <- R9
	#DEBUG_VALUE: XUD_SetReady_In:ep <- R9
	#DEBUG_VALUE: ep_hid <- R9
	#DEBUG_VALUE: sampleFreq <- 48000
	#DEBUG_VALUE: masterClockFreq <- 24576000
	#DEBUG_VALUE: lastClock <- 0
	#DEBUG_VALUE: clocks <- 0
	#DEBUG_VALUE: clockcounter <- 0
	#DEBUG_VALUE: bufferIn <- 1
	#DEBUG_VALUE: remnant <- 0
	#DEBUG_VALUE: sofCount <- 0
	#DEBUG_VALUE: freqChange <- 0
	#DEBUG_VALUE: mod_from_last_time <- 0
	#DEBUG_VALUE: aud_from_host_buffer <- 0
	#DEBUG_VALUE: XUD_SetReady_In:len <- 1
	#DEBUG_VALUE: addr <- R0
	#DEBUG_VALUE: XUD_SetReady_InPtr:addr <- R0
	#DEBUG_VALUE: XUD_SetReady_InPtr:len <- 1
	#DEBUG_VALUE: XUD_SetReady_In:buffer <- R10
	#DEBUG_VALUE: wordlength <- 0
	{
		ldc r1, 32
		nop
	}
	.loc	2 473 0                 # /Users/cwu/Desktop/Audio_Sound/module_xud/include/xud.h:473:0
	{
		zext r1, 7
		nop
	}
.Ltmp24:
	#DEBUG_VALUE: taillength <- R1
	.loc	2 475 0                 # /Users/cwu/Desktop/Audio_Sound/module_xud/include/xud.h:475:0
	#APP
	ldw r2, r9[0]
	#NO_APP
.Ltmp25:
	#DEBUG_VALUE: chan_array_ptr <- R2
	{
		mov r11, r3
		ldc r3, 0
	}
	.loc	2 478 0                 # /Users/cwu/Desktop/Audio_Sound/module_xud/include/xud.h:478:0
	#APP
	add r0, r0, r3
	#NO_APP
.Ltmp26:
	#DEBUG_VALUE: tmp <- R0
	.loc	2 480 0                 # /Users/cwu/Desktop/Audio_Sound/module_xud/include/xud.h:480:0
	#APP
	neg r3, r3
	#NO_APP
.Ltmp27:
	#DEBUG_VALUE: tmp2 <- R3
	.loc	2 483 0                 # /Users/cwu/Desktop/Audio_Sound/module_xud/include/xud.h:483:0
	#APP
	stw r3, r9[6]
	#NO_APP
	{
		mov r3, r11
		nop
	}
.Ltmp28:
	.loc	2 486 0                 # /Users/cwu/Desktop/Audio_Sound/module_xud/include/xud.h:486:0
	#APP
	stw r0, r9[3]
	#NO_APP
	.loc	2 489 0                 # /Users/cwu/Desktop/Audio_Sound/module_xud/include/xud.h:489:0
	#APP
	stw r1, r9[7]
	#NO_APP
	.loc	2 491 0                 # /Users/cwu/Desktop/Audio_Sound/module_xud/include/xud.h:491:0
	#APP
	stw r9, r2[0]
	#NO_APP
.Ltmp29:
.LBB0_2:                                # %LoopBody.preheader
	#DEBUG_VALUE: buffer:c_aud_out <- R7
	#DEBUG_VALUE: buffer:c_aud_in <- R6
	#DEBUG_VALUE: buffer:c_sof <- R5
	#DEBUG_VALUE: buffer:c_aud_ctl <- R4
	#DEBUG_VALUE: buffer:c_hid <- R8
	#DEBUG_VALUE: buffer:p_off_mclk <- undef
	#DEBUG_VALUE: ep_aud_out <- [SP+56]
	#DEBUG_VALUE: ep_aud_in <- [SP+52]
	#DEBUG_VALUE: XUD_SetReady_InPtr:ep <- R9
	#DEBUG_VALUE: XUD_SetReady_In:ep <- R9
	#DEBUG_VALUE: ep_hid <- R9
	#DEBUG_VALUE: sampleFreq <- 48000
	#DEBUG_VALUE: masterClockFreq <- 24576000
	#DEBUG_VALUE: lastClock <- 0
	#DEBUG_VALUE: clocks <- 0
	#DEBUG_VALUE: clockcounter <- 0
	#DEBUG_VALUE: bufferIn <- 1
	#DEBUG_VALUE: remnant <- 0
	#DEBUG_VALUE: sofCount <- 0
	#DEBUG_VALUE: freqChange <- 0
	#DEBUG_VALUE: mod_from_last_time <- 0
	#DEBUG_VALUE: aud_from_host_buffer <- 0
	ldap r11, .Ltmp30
	.loc	1 267 9                 # /Users/cwu/Desktop/Audio_Sound/module_usb_audio/usb_buffer/usb_buffer.xc:267:9
.Ltmp31:
	{
		setv res[r5], r11
		nop
	}
	ldc r0, 48000
	{
		nop
		stw r0, sp[8]
	}
	ldw r0, cp[.LCPI0_0]
	.loc	2 508 0                 # /Users/cwu/Desktop/Audio_Sound/module_xud/include/xud.h:508:0
.Ltmp32:
	#APP
	mov r1, r10
	#NO_APP
	{
		ldc r1, 32
		stw r1, sp[12]
	}
	.loc	2 473 0                 # /Users/cwu/Desktop/Audio_Sound/module_xud/include/xud.h:473:0
.Ltmp33:
	{
		zext r1, 7
		nop
	}
	{
		nop
		stw r1, sp[11]
	}
	.loc	2 480 0                 # /Users/cwu/Desktop/Audio_Sound/module_xud/include/xud.h:480:0
	#APP
	neg r1, r3
	#NO_APP
	{
		nop
		stw r1, sp[10]
	}
	{
		nop
		stw r3, sp[2]
	}
	{
		nop
		stw r3, sp[6]
	}
	{
		nop
		stw r3, sp[5]
	}
	{
		nop
		stw r3, sp[4]
	}
	{
		mov r0, r3
		stw r0, sp[3]
	}
	bu .LBB0_3
.Ltmp34:
.LBB0_23:                               # %ifdone25
                                        #   in Loop: Header=BB0_3 Depth=1
.Lxtalabel2:
	{
		nop
		ldw r0, sp[9]
	}
.Ltmp35:
	#DEBUG_VALUE: buffer:c_aud_out <- R7
	#DEBUG_VALUE: buffer:c_aud_in <- R6
	#DEBUG_VALUE: buffer:c_sof <- R5
	#DEBUG_VALUE: buffer:c_aud_ctl <- R4
	#DEBUG_VALUE: buffer:c_hid <- R8
	#DEBUG_VALUE: buffer:p_off_mclk <- undef
	#DEBUG_VALUE: cmd <- R11
	.loc	1 389 0                 # /Users/cwu/Desktop/Audio_Sound/module_usb_audio/usb_buffer/usb_buffer.xc:389:0
	#APP
	stw r11, dp[g_freqChange]
	#NO_APP
	.loc	1 390 0                 # /Users/cwu/Desktop/Audio_Sound/module_usb_audio/usb_buffer/usb_buffer.xc:390:0
	#APP
	stw r11, dp[g_freqChange_flag]
	#NO_APP
.Ltmp36:
.LBB0_3:                                # %LoopBody.outer.outer
                                        # =>This Loop Header: Depth=1
                                        #     Child Loop BB0_4 Depth 2
                                        #       Child Loop BB0_5 Depth 3
	#DEBUG_VALUE: buffer:c_aud_out <- R7
	#DEBUG_VALUE: buffer:c_aud_in <- R6
	#DEBUG_VALUE: buffer:c_sof <- R5
	#DEBUG_VALUE: buffer:c_aud_ctl <- R4
	#DEBUG_VALUE: buffer:c_hid <- R8
	#DEBUG_VALUE: buffer:p_off_mclk <- undef
	{
		mov r2, r0
		nop
	}
	bu .LBB0_4
.Ltmp37:
.LBB0_34:                               # %ifdone96
                                        #   in Loop: Header=BB0_4 Depth=2
.Lxtalabel3:
	#DEBUG_VALUE: u_tmp <- R2
	#DEBUG_VALUE: buffer:c_aud_out <- R7
	#DEBUG_VALUE: buffer:c_aud_in <- R6
	#DEBUG_VALUE: buffer:c_sof <- R5
	#DEBUG_VALUE: buffer:c_aud_ctl <- R4
	#DEBUG_VALUE: buffer:c_hid <- R8
	#DEBUG_VALUE: buffer:p_off_mclk <- undef
	#DEBUG_VALUE: u_tmp <- R2
	#DEBUG_VALUE: feedbackMul <- 8
	#DEBUG_VALUE: sofCount <- R1
	{
		add r1, r1, 1
		ldw r2, sp[9]
	}
.Ltmp38:
	{
		nop
		stw r1, sp[6]
	}
.Ltmp39:
	#DEBUG_VALUE: sofCount <- [SP+24]
.LBB0_4:                                # %LoopBody.outer155
                                        #   Parent Loop BB0_3 Depth=1
                                        # =>  This Loop Header: Depth=2
                                        #       Child Loop BB0_5 Depth 3
	#DEBUG_VALUE: buffer:c_aud_out <- R7
	#DEBUG_VALUE: buffer:c_aud_in <- R6
	#DEBUG_VALUE: buffer:c_sof <- R5
	#DEBUG_VALUE: buffer:c_aud_ctl <- R4
	#DEBUG_VALUE: buffer:c_hid <- R8
	#DEBUG_VALUE: buffer:p_off_mclk <- undef
	{
		nop
		stw r2, sp[9]
	}
	bu .LBB0_5
.Ltmp40:
.Ltmp41:                                # Block address taken
.LBB0_7:                                # %selectcase7
                                        #   in Loop: Header=BB0_5 Depth=3
.Lxtalabel4:
	#DEBUG_VALUE: buffer:c_aud_out <- R7
	#DEBUG_VALUE: buffer:c_aud_in <- R6
	#DEBUG_VALUE: buffer:c_sof <- R5
	#DEBUG_VALUE: buffer:c_aud_ctl <- R4
	#DEBUG_VALUE: buffer:c_hid <- R8
	#DEBUG_VALUE: buffer:p_off_mclk <- undef
	#DEBUG_VALUE: length <- undef
	#DEBUG_VALUE: result <- undef
	.loc	1 576 0                 # /Users/cwu/Desktop/Audio_Sound/module_usb_audio/usb_buffer/usb_buffer.xc:576:0
	{
		mov r0, r7
		ldw r1, sp[14]
	}
	{
		ldaw r2, sp[18]
		ldaw r3, sp[19]
	}
.Lxta.call_labels3:
	bl XUD_GetData_Select
	.loc	1 578 0                 # /Users/cwu/Desktop/Audio_Sound/module_usb_audio/usb_buffer/usb_buffer.xc:578:0
	#APP
	ldw r0, dp[g_aud_from_host_buffer]
	#NO_APP
.Ltmp42:
	#DEBUG_VALUE: aud_from_host_buffer <- R0
	{
		nop
		ldw r1, sp[18]
	}
	.loc	1 580 0                 # /Users/cwu/Desktop/Audio_Sound/module_usb_audio/usb_buffer/usb_buffer.xc:580:0
	#APP
	stw r1, r0[0]
	#NO_APP
	{
		mkmsk r0, 1
		nop
	}
.Ltmp43:
	.loc	1 583 0                 # /Users/cwu/Desktop/Audio_Sound/module_usb_audio/usb_buffer/usb_buffer.xc:583:0
	#APP
	stw r0, dp[g_aud_from_host_flag]
	#NO_APP
.Ltmp44:
.LBB0_5:                                # %LoopBody
                                        #   Parent Loop BB0_3 Depth=1
                                        #     Parent Loop BB0_4 Depth=2
                                        # =>    This Inner Loop Header: Depth=3
.Lxtalabel5:
	#DEBUG_VALUE: buffer:c_aud_out <- R7
	#DEBUG_VALUE: buffer:c_aud_in <- R6
	#DEBUG_VALUE: buffer:c_sof <- R5
	#DEBUG_VALUE: buffer:c_aud_ctl <- R4
	#DEBUG_VALUE: buffer:c_hid <- R8
	#DEBUG_VALUE: buffer:p_off_mclk <- undef
	.loc	1 267 9                 # /Users/cwu/Desktop/Audio_Sound/module_usb_audio/usb_buffer/usb_buffer.xc:267:9
	{
		clre
		nop
	}
	ldap r11, .Ltmp45
	.loc	1 267 9                 # /Users/cwu/Desktop/Audio_Sound/module_usb_audio/usb_buffer/usb_buffer.xc:267:9
	{
		setv res[r4], r11
		nop
	}
	.loc	1 267 9                 # /Users/cwu/Desktop/Audio_Sound/module_usb_audio/usb_buffer/usb_buffer.xc:267:9
	{
		eeu res[r4]
		nop
	}
	.loc	1 267 9                 # /Users/cwu/Desktop/Audio_Sound/module_usb_audio/usb_buffer/usb_buffer.xc:267:9
	{
		eeu res[r5]
		nop
	}
	ldap r11, .Ltmp46
	.loc	1 267 9                 # /Users/cwu/Desktop/Audio_Sound/module_usb_audio/usb_buffer/usb_buffer.xc:267:9
	{
		setv res[r6], r11
		nop
	}
	.loc	1 267 9                 # /Users/cwu/Desktop/Audio_Sound/module_usb_audio/usb_buffer/usb_buffer.xc:267:9
	{
		eeu res[r6]
		nop
	}
	ldap r11, .Ltmp41
	.loc	1 267 9                 # /Users/cwu/Desktop/Audio_Sound/module_usb_audio/usb_buffer/usb_buffer.xc:267:9
	{
		setv res[r7], r11
		nop
	}
	.loc	1 267 9                 # /Users/cwu/Desktop/Audio_Sound/module_usb_audio/usb_buffer/usb_buffer.xc:267:9
	{
		eeu res[r7]
		nop
	}
	ldap r11, .Ltmp47
	.loc	1 267 9                 # /Users/cwu/Desktop/Audio_Sound/module_usb_audio/usb_buffer/usb_buffer.xc:267:9
	{
		setv res[r8], r11
		nop
	}
	.loc	1 267 9                 # /Users/cwu/Desktop/Audio_Sound/module_usb_audio/usb_buffer/usb_buffer.xc:267:9
	{
		eeu res[r8]
		nop
	}
	.loc	1 732 0                 # /Users/cwu/Desktop/Audio_Sound/module_usb_audio/usb_buffer/usb_buffer.xc:732:0

	.xtabranch .LBB0_10, .LBB0_24, .LBB0_6, .LBB0_7, .LBB0_8
	{
		waiteu
		nop
	}
.Ltmp48:
.Ltmp46:                                # Block address taken
.LBB0_6:                                # %selectcase4
                                        #   in Loop: Header=BB0_5 Depth=3
.Lxtalabel6:
	#DEBUG_VALUE: buffer:c_aud_out <- R7
	#DEBUG_VALUE: buffer:c_aud_in <- R6
	#DEBUG_VALUE: buffer:c_sof <- R5
	#DEBUG_VALUE: buffer:c_aud_ctl <- R4
	#DEBUG_VALUE: buffer:c_hid <- R8
	#DEBUG_VALUE: buffer:p_off_mclk <- undef
	#DEBUG_VALUE: result <- undef
	.loc	1 547 0                 # /Users/cwu/Desktop/Audio_Sound/module_usb_audio/usb_buffer/usb_buffer.xc:547:0
	{
		mov r0, r6
		ldw r1, sp[13]
	}
	{
		ldaw r2, sp[19]
		nop
	}
.Lxta.call_labels4:
	bl XUD_SetData_Select
	{
		ldc r0, 2
		nop
	}
	.loc	1 550 0                 # /Users/cwu/Desktop/Audio_Sound/module_usb_audio/usb_buffer/usb_buffer.xc:550:0
	#APP
	stw r0, dp[g_aud_to_host_flag]
	#NO_APP
	bu .LBB0_5
.Ltmp49:
.Ltmp47:                                # Block address taken
.LBB0_8:                                # %selectcase10
                                        #   in Loop: Header=BB0_5 Depth=3
.Lxtalabel7:
	#DEBUG_VALUE: buffer:c_aud_out <- R7
	#DEBUG_VALUE: buffer:c_aud_in <- R6
	#DEBUG_VALUE: buffer:c_sof <- R5
	#DEBUG_VALUE: buffer:c_aud_ctl <- R4
	#DEBUG_VALUE: buffer:c_hid <- R8
	#DEBUG_VALUE: buffer:p_off_mclk <- undef
	#DEBUG_VALUE: result <- undef
	.loc	1 726 0                 # /Users/cwu/Desktop/Audio_Sound/module_usb_audio/usb_buffer/usb_buffer.xc:726:0
	{
		mov r0, r8
		mov r1, r9
	}
	{
		ldaw r2, sp[19]
		nop
	}
.Lxta.call_labels5:
	bl XUD_SetData_Select
	{
		mov r0, r10
		ldc r1, 0
	}
	.loc	1 728 0                 # /Users/cwu/Desktop/Audio_Sound/module_usb_audio/usb_buffer/usb_buffer.xc:728:0
	st8 r1, r0[r1]
	{
		mkmsk r1, 1
		nop
	}
	.loc	1 729 0                 # /Users/cwu/Desktop/Audio_Sound/module_usb_audio/usb_buffer/usb_buffer.xc:729:0
.Lxta.call_labels6:
	bl UserReadHIDButtons
.Ltmp50:
	#DEBUG_VALUE: XUD_SetReady_In:len <- 1
	#DEBUG_VALUE: XUD_SetReady_InPtr:len <- 1
	#DEBUG_VALUE: XUD_SetReady_InPtr:addr <- [SP+48]
	#DEBUG_VALUE: addr <- [SP+48]
	.loc	2 463 0                 # /Users/cwu/Desktop/Audio_Sound/module_xud/include/xud.h:463:0
	#APP
	ldw r0, r9[9]
	#NO_APP
.Ltmp51:
	#DEBUG_VALUE: XUD_SetReady_In:buffer <- R10
	#DEBUG_VALUE: reset <- R0
	bt r0, .LBB0_5
.Ltmp52:
# BB#9:                                 # %ifdone.i.i152
                                        #   in Loop: Header=BB0_5 Depth=3
.Lxtalabel8:
	#DEBUG_VALUE: buffer:c_aud_out <- R7
	#DEBUG_VALUE: buffer:c_aud_in <- R6
	#DEBUG_VALUE: buffer:c_sof <- R5
	#DEBUG_VALUE: buffer:c_aud_ctl <- R4
	#DEBUG_VALUE: buffer:c_hid <- R8
	#DEBUG_VALUE: buffer:p_off_mclk <- undef
	#DEBUG_VALUE: result <- undef
	#DEBUG_VALUE: XUD_SetReady_In:len <- 1
	#DEBUG_VALUE: addr <- [SP+48]
	#DEBUG_VALUE: XUD_SetReady_InPtr:addr <- [SP+48]
	#DEBUG_VALUE: XUD_SetReady_InPtr:len <- 1
	#DEBUG_VALUE: XUD_SetReady_In:buffer <- R10
	#DEBUG_VALUE: wordlength <- 0
	#DEBUG_VALUE: taillength <- [SP+44]
	.loc	2 475 0                 # /Users/cwu/Desktop/Audio_Sound/module_xud/include/xud.h:475:0
	#APP
	ldw r0, r9[0]
	#NO_APP
.Ltmp53:
	#DEBUG_VALUE: chan_array_ptr <- R0
	{
		ldc r1, 0
		ldw r2, sp[12]
	}
	.loc	2 478 0                 # /Users/cwu/Desktop/Audio_Sound/module_xud/include/xud.h:478:0
	#APP
	add r1, r2, r1
	#NO_APP
.Ltmp54:
	#DEBUG_VALUE: tmp2 <- [SP+40]
	#DEBUG_VALUE: tmp <- R1
	{
		nop
		ldw r2, sp[10]
	}
	.loc	2 483 0                 # /Users/cwu/Desktop/Audio_Sound/module_xud/include/xud.h:483:0
	#APP
	stw r2, r9[6]
	#NO_APP
	.loc	2 486 0                 # /Users/cwu/Desktop/Audio_Sound/module_xud/include/xud.h:486:0
	#APP
	stw r1, r9[3]
	#NO_APP
	{
		nop
		ldw r1, sp[11]
	}
.Ltmp55:
	.loc	2 489 0                 # /Users/cwu/Desktop/Audio_Sound/module_xud/include/xud.h:489:0
	#APP
	stw r1, r9[7]
	#NO_APP
	.loc	2 491 0                 # /Users/cwu/Desktop/Audio_Sound/module_xud/include/xud.h:491:0
	#APP
	stw r9, r0[0]
	#NO_APP
	bu .LBB0_5
.Ltmp56:
.Ltmp30:                                # Block address taken
.LBB0_24:                               # %selectcase2
                                        #   in Loop: Header=BB0_4 Depth=2
.Lxtalabel9:
	#DEBUG_VALUE: buffer:c_aud_out <- R7
	#DEBUG_VALUE: buffer:c_aud_in <- R6
	#DEBUG_VALUE: buffer:c_sof <- R5
	#DEBUG_VALUE: buffer:c_aud_ctl <- R4
	#DEBUG_VALUE: buffer:c_hid <- R8
	#DEBUG_VALUE: buffer:p_off_mclk <- undef
	.loc	1 400 0                 # /Users/cwu/Desktop/Audio_Sound/module_usb_audio/usb_buffer/usb_buffer.xc:400:0
.Lxta.endpoint_labels0:
	{
		in r0, res[r5]
		nop
	}
.Ltmp57:
	#DEBUG_VALUE: testct_byref:isCt <- R0
	#DEBUG_VALUE: u_tmp <- R0
	{
		nop
		ldw r0, sp[29]
	}
.Ltmp58:
	.loc	1 406 0                 # /Users/cwu/Desktop/Audio_Sound/module_usb_audio/usb_buffer/usb_buffer.xc:406:0
	#APP
	 getts r2, res[r0]
	#NO_APP
	.loc	1 408 0                 # /Users/cwu/Desktop/Audio_Sound/module_usb_audio/usb_buffer/usb_buffer.xc:408:0
	#APP
	ldw r0, dp[g_freqChange]
	#NO_APP
.Ltmp59:
	#DEBUG_VALUE: freqChange <- R0
	.loc	1 409 17                # /Users/cwu/Desktop/Audio_Sound/module_usb_audio/usb_buffer/usb_buffer.xc:409:17
	{
		eq r0, r0, 4
		nop
	}
.Ltmp60:
	bt r0, .LBB0_4
.Ltmp61:
# BB#25:                                # %iffalse77
                                        #   in Loop: Header=BB0_4 Depth=2
.Lxtalabel10:
	#DEBUG_VALUE: buffer:c_aud_out <- R7
	#DEBUG_VALUE: buffer:c_aud_in <- R6
	#DEBUG_VALUE: buffer:c_sof <- R5
	#DEBUG_VALUE: buffer:c_aud_ctl <- R4
	#DEBUG_VALUE: buffer:c_hid <- R8
	#DEBUG_VALUE: buffer:p_off_mclk <- undef
	.loc	1 417 0                 # /Users/cwu/Desktop/Audio_Sound/module_usb_audio/usb_buffer/usb_buffer.xc:417:0
	#APP
	ldw r0, dp[g_curUsbSpeed]
	#NO_APP
.Ltmp62:
	#DEBUG_VALUE: feedbackMul <- 64
	#DEBUG_VALUE: usb_speed <- R0
	.loc	1 479 21                # /Users/cwu/Desktop/Audio_Sound/module_usb_audio/usb_buffer/usb_buffer.xc:479:21
	{
		eq r1, r0, 2
		nop
	}
.Ltmp63:
	#DEBUG_VALUE: feedbackMul <- 8
	ldc r0, 64
.Ltmp64:
	{
		nop
		stw r1, sp[7]
	}
	bt r1, .LBB0_27
.Ltmp65:
# BB#26:                                # %iffalse77
                                        #   in Loop: Header=BB0_4 Depth=2
.Lxtalabel11:
	#DEBUG_VALUE: buffer:c_aud_out <- R7
	#DEBUG_VALUE: buffer:c_aud_in <- R6
	#DEBUG_VALUE: buffer:c_sof <- R5
	#DEBUG_VALUE: buffer:c_aud_ctl <- R4
	#DEBUG_VALUE: buffer:c_hid <- R8
	#DEBUG_VALUE: buffer:p_off_mclk <- undef
	#DEBUG_VALUE: feedbackMul <- 8
	{
		ldc r0, 8
		nop
	}
.Ltmp66:
.LBB0_27:                               # %iffalse77
                                        #   in Loop: Header=BB0_4 Depth=2
.Lxtalabel12:
	#DEBUG_VALUE: buffer:c_aud_out <- R7
	#DEBUG_VALUE: buffer:c_aud_in <- R6
	#DEBUG_VALUE: buffer:c_sof <- R5
	#DEBUG_VALUE: buffer:c_aud_ctl <- R4
	#DEBUG_VALUE: buffer:c_hid <- R8
	#DEBUG_VALUE: buffer:p_off_mclk <- undef
	#DEBUG_VALUE: u_tmp <- R2
	#DEBUG_VALUE: feedbackMul <- 8
	{
		nop
		ldw r1, sp[9]
	}
.Ltmp67:
	#DEBUG_VALUE: u_tmp <- [SP+36]
	.loc	1 483 0                 # /Users/cwu/Desktop/Audio_Sound/module_usb_audio/usb_buffer/usb_buffer.xc:483:0
	{
		sub r1, r2, r1
		stw r2, sp[9]
	}
	.loc	1 483 0                 # /Users/cwu/Desktop/Audio_Sound/module_usb_audio/usb_buffer/usb_buffer.xc:483:0
	{
		sext r1, 16
		nop
	}
.Ltmp68:
	#DEBUG_VALUE: count <- R1
	.loc	1 485 0                 # /Users/cwu/Desktop/Audio_Sound/module_usb_audio/usb_buffer/usb_buffer.xc:485:0
	ashr r2, r1, 32
	{
		ldc r3, 0
		ldw r11, sp[8]
	}
	.loc	1 485 0                 # /Users/cwu/Desktop/Audio_Sound/module_usb_audio/usb_buffer/usb_buffer.xc:485:0
	lmul r1, r3, r1, r11, r3, r3
.Ltmp69:
	mul r2, r2, r11
	{
		add r1, r1, r2
		nop
	}
	.loc	1 485 0                 # /Users/cwu/Desktop/Audio_Sound/module_usb_audio/usb_buffer/usb_buffer.xc:485:0
	mul r1, r1, r0
	{
		nop
		ldw r2, sp[5]
	}
	{
		nop
		ldw r11, sp[4]
	}
	.loc	1 487 0                 # /Users/cwu/Desktop/Audio_Sound/module_usb_audio/usb_buffer/usb_buffer.xc:487:0
	maccu r11, r2, r3, r0
	{
		add r11, r11, r1
		nop
	}
	ldc r0, 128
	{
		nop
		ldw r1, sp[6]
	}
	.loc	1 494 21                # /Users/cwu/Desktop/Audio_Sound/module_usb_audio/usb_buffer/usb_buffer.xc:494:21
	{
		eq r0, r1, r0
		nop
	}
	bf r0, .LBB0_28
.Ltmp70:
# BB#29:                                # %iftrue95
                                        #   in Loop: Header=BB0_4 Depth=2
.Lxtalabel13:
	#DEBUG_VALUE: buffer:c_aud_out <- R7
	#DEBUG_VALUE: buffer:c_aud_in <- R6
	#DEBUG_VALUE: buffer:c_sof <- R5
	#DEBUG_VALUE: buffer:c_aud_ctl <- R4
	#DEBUG_VALUE: buffer:c_hid <- R8
	#DEBUG_VALUE: buffer:p_off_mclk <- undef
	#DEBUG_VALUE: sofCount <- 0
	#DEBUG_VALUE: u_tmp <- [SP+36]
	#DEBUG_VALUE: feedbackMul <- 8
	.loc	1 498 0                 # /Users/cwu/Desktop/Audio_Sound/module_usb_audio/usb_buffer/usb_buffer.xc:498:0
	{
		ldc r1, 0
		ldw r0, sp[2]
	}
	{
		mov r3, r1
		nop
	}
	ladd r1, r0, r2, r0, r3
	{
		add r1, r11, r1
		stw r0, sp[4]
	}
	{
		nop
		stw r1, sp[5]
	}
	{
		nop
		ldw r2, sp[3]
	}
	.loc	1 499 0                 # /Users/cwu/Desktop/Audio_Sound/module_usb_audio/usb_buffer/usb_buffer.xc:499:0
	bl __divdi3
	{
		nop
		stw r0, sp[6]
	}
	{
		nop
		ldw r0, sp[4]
	}
	{
		nop
		ldw r1, sp[5]
	}
	.loc	1 500 0                 # /Users/cwu/Desktop/Audio_Sound/module_usb_audio/usb_buffer/usb_buffer.xc:500:0
	{
		ldc r3, 0
		ldw r2, sp[3]
	}
	bl __moddi3
	{
		mkmsk r0, 2
		stw r0, sp[2]
	}
	{
		nop
		ldw r1, sp[7]
	}
	bt r1, .LBB0_31
.Ltmp71:
# BB#30:                                # %iftrue95
                                        #   in Loop: Header=BB0_4 Depth=2
.Lxtalabel14:
	#DEBUG_VALUE: buffer:c_aud_out <- R7
	#DEBUG_VALUE: buffer:c_aud_in <- R6
	#DEBUG_VALUE: buffer:c_sof <- R5
	#DEBUG_VALUE: buffer:c_aud_ctl <- R4
	#DEBUG_VALUE: buffer:c_hid <- R8
	#DEBUG_VALUE: buffer:p_off_mclk <- undef
	#DEBUG_VALUE: sofCount <- 0
	#DEBUG_VALUE: u_tmp <- [SP+36]
	#DEBUG_VALUE: feedbackMul <- 8
	{
		ldc r0, 6
		nop
	}
.Ltmp72:
.LBB0_31:                               # %iftrue95
                                        #   in Loop: Header=BB0_4 Depth=2
.Lxtalabel15:
	#DEBUG_VALUE: buffer:c_aud_out <- R7
	#DEBUG_VALUE: buffer:c_aud_in <- R6
	#DEBUG_VALUE: buffer:c_sof <- R5
	#DEBUG_VALUE: buffer:c_aud_ctl <- R4
	#DEBUG_VALUE: buffer:c_hid <- R8
	#DEBUG_VALUE: buffer:p_off_mclk <- undef
	#DEBUG_VALUE: sofCount <- 0
	#DEBUG_VALUE: u_tmp <- [SP+36]
	#DEBUG_VALUE: feedbackMul <- 8
	{
		nop
		ldw r1, sp[6]
	}
	.loc	1 502 25                # /Users/cwu/Desktop/Audio_Sound/module_usb_audio/usb_buffer/usb_buffer.xc:502:25
	{
		shl r0, r1, r0
		nop
	}
	.loc	1 517 0                 # /Users/cwu/Desktop/Audio_Sound/module_usb_audio/usb_buffer/usb_buffer.xc:517:0
.Ltmp73:
	#APP
	stw r0, dp[g_speed]
	#NO_APP
	.loc	1 519 0                 # /Users/cwu/Desktop/Audio_Sound/module_usb_audio/usb_buffer/usb_buffer.xc:519:0
	#APP
	ldw r1, dp[g_curUsbSpeed]
	#NO_APP
.Ltmp74:
	#DEBUG_VALUE: usb_speed <- R1
	.loc	1 521 29                # /Users/cwu/Desktop/Audio_Sound/module_usb_audio/usb_buffer/usb_buffer.xc:521:29
	{
		eq r1, r1, 2
		ldc r2, 0
	}
.Ltmp75:
	bt r1, .LBB0_33
.Ltmp76:
# BB#32:                                # %iftrue95
                                        #   in Loop: Header=BB0_4 Depth=2
.Lxtalabel16:
	#DEBUG_VALUE: buffer:c_aud_out <- R7
	#DEBUG_VALUE: buffer:c_aud_in <- R6
	#DEBUG_VALUE: buffer:c_sof <- R5
	#DEBUG_VALUE: buffer:c_aud_ctl <- R4
	#DEBUG_VALUE: buffer:c_hid <- R8
	#DEBUG_VALUE: buffer:p_off_mclk <- undef
	#DEBUG_VALUE: sofCount <- 0
	#DEBUG_VALUE: u_tmp <- [SP+36]
	#DEBUG_VALUE: feedbackMul <- 8
	.loc	1 527 0                 # /Users/cwu/Desktop/Audio_Sound/module_usb_audio/usb_buffer/usb_buffer.xc:527:0
	{
		shr r0, r0, 2
		nop
	}
.Ltmp77:
.LBB0_33:                               # %iftrue95
                                        #   in Loop: Header=BB0_4 Depth=2
.Lxtalabel17:
	#DEBUG_VALUE: buffer:c_aud_out <- R7
	#DEBUG_VALUE: buffer:c_aud_in <- R6
	#DEBUG_VALUE: buffer:c_sof <- R5
	#DEBUG_VALUE: buffer:c_aud_ctl <- R4
	#DEBUG_VALUE: buffer:c_hid <- R8
	#DEBUG_VALUE: buffer:p_off_mclk <- undef
	#DEBUG_VALUE: sofCount <- 0
	#DEBUG_VALUE: u_tmp <- [SP+36]
	#DEBUG_VALUE: feedbackMul <- 8
	.loc	1 527 0                 # /Users/cwu/Desktop/Audio_Sound/module_usb_audio/usb_buffer/usb_buffer.xc:527:0
	stw r0, dp[fb_clocks]
	#DEBUG_VALUE: clockcounter <- 0
	{
		mov r1, r2
		stw r2, sp[5]
	}
	{
		nop
		stw r2, sp[4]
	}
	bu .LBB0_34
.Ltmp78:
.LBB0_28:                               #   in Loop: Header=BB0_4 Depth=2
	#DEBUG_VALUE: buffer:c_aud_out <- R7
	#DEBUG_VALUE: buffer:c_aud_in <- R6
	#DEBUG_VALUE: buffer:c_sof <- R5
	#DEBUG_VALUE: buffer:c_aud_ctl <- R4
	#DEBUG_VALUE: buffer:c_hid <- R8
	#DEBUG_VALUE: buffer:p_off_mclk <- undef
	{
		nop
		stw r11, sp[4]
	}
	{
		nop
		stw r2, sp[5]
	}
	bu .LBB0_34
.Ltmp79:
.Ltmp45:                                # Block address taken
.LBB0_10:                               # %selectcase
                                        #   in Loop: Header=BB0_3 Depth=1
.Lxtalabel18:
	#DEBUG_VALUE: buffer:c_aud_out <- R7
	#DEBUG_VALUE: buffer:c_aud_in <- R6
	#DEBUG_VALUE: buffer:c_sof <- R5
	#DEBUG_VALUE: buffer:c_aud_ctl <- R4
	#DEBUG_VALUE: buffer:c_hid <- R8
	#DEBUG_VALUE: buffer:p_off_mclk <- undef
	#DEBUG_VALUE: testct_byref:c <- R4
	.file	3 "/Users/cwu/Desktop/Audio_Sound/module_usb_audio/usb_buffer/testct_byref.h"
	.loc	3 8 5                   # /Users/cwu/Desktop/Audio_Sound/module_usb_audio/usb_buffer/testct_byref.h:8:5
	{
		testct r0, res[r4]
		nop
	}
.Ltmp80:
	.loc	1 297 17                # /Users/cwu/Desktop/Audio_Sound/module_usb_audio/usb_buffer/usb_buffer.xc:297:17
	bt r0, .LBB0_15
.Ltmp81:
# BB#11:                                # %iffalse
                                        #   in Loop: Header=BB0_3 Depth=1
.Lxtalabel19:
	#DEBUG_VALUE: buffer:c_aud_out <- R7
	#DEBUG_VALUE: buffer:c_aud_in <- R6
	#DEBUG_VALUE: buffer:c_sof <- R5
	#DEBUG_VALUE: buffer:c_aud_ctl <- R4
	#DEBUG_VALUE: buffer:c_hid <- R8
	#DEBUG_VALUE: buffer:p_off_mclk <- undef
	.loc	1 306 0                 # /Users/cwu/Desktop/Audio_Sound/module_usb_audio/usb_buffer/usb_buffer.xc:306:0
.Lxta.endpoint_labels1:
	{
		in r11, res[r4]
		nop
	}
.Ltmp82:
	#DEBUG_VALUE: cmd <- R11
	.loc	1 308 21                # /Users/cwu/Desktop/Audio_Sound/module_usb_audio/usb_buffer/usb_buffer.xc:308:21
	{
		eq r0, r11, 4
		nop
	}
	bt r0, .LBB0_17
.Ltmp83:
# BB#12:                                # %iffalse
                                        #   in Loop: Header=BB0_3 Depth=1
.Lxtalabel20:
	#DEBUG_VALUE: buffer:c_aud_out <- R7
	#DEBUG_VALUE: buffer:c_aud_in <- R6
	#DEBUG_VALUE: buffer:c_sof <- R5
	#DEBUG_VALUE: buffer:c_aud_ctl <- R4
	#DEBUG_VALUE: buffer:c_hid <- R8
	#DEBUG_VALUE: buffer:p_off_mclk <- undef
	{
		eq r0, r11, 8
		nop
	}
	bf r0, .LBB0_13
.Ltmp84:
# BB#22:                                # %iftrue55
                                        #   in Loop: Header=BB0_3 Depth=1
.Lxtalabel21:
	#DEBUG_VALUE: buffer:c_aud_out <- R7
	#DEBUG_VALUE: buffer:c_aud_in <- R6
	#DEBUG_VALUE: buffer:c_sof <- R5
	#DEBUG_VALUE: buffer:c_aud_ctl <- R4
	#DEBUG_VALUE: buffer:c_hid <- R8
	#DEBUG_VALUE: buffer:p_off_mclk <- undef
	.loc	1 361 0                 # /Users/cwu/Desktop/Audio_Sound/module_usb_audio/usb_buffer/usb_buffer.xc:361:0
.Lxta.endpoint_labels2:
	{
		in r0, res[r4]
		nop
	}
.Ltmp85:
	#DEBUG_VALUE: formatChange_DataFormat <- R0
	.loc	1 362 0                 # /Users/cwu/Desktop/Audio_Sound/module_usb_audio/usb_buffer/usb_buffer.xc:362:0
.Lxta.endpoint_labels3:
	{
		in r1, res[r4]
		nop
	}
.Ltmp86:
	#DEBUG_VALUE: formatChange_NumChans <- R1
	.loc	1 363 0                 # /Users/cwu/Desktop/Audio_Sound/module_usb_audio/usb_buffer/usb_buffer.xc:363:0
.Lxta.endpoint_labels4:
	{
		in r2, res[r4]
		nop
	}
.Ltmp87:
	#DEBUG_VALUE: formatChange_SubSlot <- R2
	.loc	1 364 0                 # /Users/cwu/Desktop/Audio_Sound/module_usb_audio/usb_buffer/usb_buffer.xc:364:0
.Lxta.endpoint_labels5:
	{
		in r3, res[r4]
		nop
	}
.Ltmp88:
	#DEBUG_VALUE: formatChange_SampRes <- R3
	.loc	1 366 0                 # /Users/cwu/Desktop/Audio_Sound/module_usb_audio/usb_buffer/usb_buffer.xc:366:0
	#APP
	stw r1, dp[g_formatChange_NumChans]
	#NO_APP
	.loc	1 367 0                 # /Users/cwu/Desktop/Audio_Sound/module_usb_audio/usb_buffer/usb_buffer.xc:367:0
	#APP
	stw r2, dp[g_formatChange_SubSlot]
	#NO_APP
	.loc	1 368 0                 # /Users/cwu/Desktop/Audio_Sound/module_usb_audio/usb_buffer/usb_buffer.xc:368:0
	#APP
	stw r0, dp[g_formatChange_DataFormat]
	#NO_APP
	.loc	1 369 0                 # /Users/cwu/Desktop/Audio_Sound/module_usb_audio/usb_buffer/usb_buffer.xc:369:0
	#APP
	stw r3, dp[g_formatChange_SampRes]
	#NO_APP
	bu .LBB0_23
.Ltmp89:
.LBB0_17:                               # %iftrue24
                                        #   in Loop: Header=BB0_3 Depth=1
.Lxtalabel22:
	#DEBUG_VALUE: buffer:c_aud_out <- R7
	#DEBUG_VALUE: buffer:c_aud_in <- R6
	#DEBUG_VALUE: buffer:c_sof <- R5
	#DEBUG_VALUE: buffer:c_aud_ctl <- R4
	#DEBUG_VALUE: buffer:c_hid <- R8
	#DEBUG_VALUE: buffer:p_off_mclk <- undef
	#DEBUG_VALUE: cmd <- R11
	.loc	1 310 0                 # /Users/cwu/Desktop/Audio_Sound/module_usb_audio/usb_buffer/usb_buffer.xc:310:0
.Lxta.endpoint_labels6:
	{
		in r3, res[r4]
		nop
	}
.Ltmp90:
	#DEBUG_VALUE: sampleFreq <- R3
	ldw r0, cp[.LCPI0_1]
	.loc	1 313 25                # /Users/cwu/Desktop/Audio_Sound/module_usb_audio/usb_buffer/usb_buffer.xc:313:25
	{
		eq r0, r3, r0
		nop
	}
	bt r0, .LBB0_21
.Ltmp91:
# BB#18:                                # %iftrue29
                                        #   in Loop: Header=BB0_3 Depth=1
.Lxtalabel23:
	#DEBUG_VALUE: buffer:c_aud_out <- R7
	#DEBUG_VALUE: buffer:c_aud_in <- R6
	#DEBUG_VALUE: buffer:c_sof <- R5
	#DEBUG_VALUE: buffer:c_aud_ctl <- R4
	#DEBUG_VALUE: buffer:c_hid <- R8
	#DEBUG_VALUE: buffer:p_off_mclk <- undef
	#DEBUG_VALUE: sampleFreq <- R3
	#DEBUG_VALUE: clocks <- 0
	#DEBUG_VALUE: clockcounter <- 0
	#DEBUG_VALUE: remnant <- 0
	#DEBUG_VALUE: sofCount <- 1
	#DEBUG_VALUE: mod_from_last_time <- 0
	#DEBUG_VALUE: cmd <- R11
	#DEBUG_VALUE: cmd <- [SP+28]
	#DEBUG_VALUE: max <- undef
	#DEBUG_VALUE: mid <- undef
	#DEBUG_VALUE: min <- undef
	{
		mov r0, r3
		stw r11, sp[7]
	}
	{
		ldaw r1, sp[17]
		ldaw r2, sp[16]
	}
.Ltmp92:
	#DEBUG_VALUE: sampleFreq <- [SP+32]
	{
		ldaw r3, sp[15]
		stw r3, sp[8]
	}
	.loc	1 329 0                 # /Users/cwu/Desktop/Audio_Sound/module_usb_audio/usb_buffer/usb_buffer.xc:329:0
.Ltmp93:
.Lxta.call_labels7:
	bl GetADCCounts
	{
		nop
		ldw r3, sp[8]
	}
.Ltmp94:
	#DEBUG_VALUE: sampleFreq <- R3
	{
		nop
		ldw r0, sp[16]
	}
	.loc	1 330 0                 # /Users/cwu/Desktop/Audio_Sound/module_usb_audio/usb_buffer/usb_buffer.xc:330:0
	{
		shl r0, r0, 16
		nop
	}
	.loc	1 330 0                 # /Users/cwu/Desktop/Audio_Sound/module_usb_audio/usb_buffer/usb_buffer.xc:330:0
	stw r0, dp[g_speed]
	ldw r0, cp[.LCPI0_0]
	.loc	1 332 29                # /Users/cwu/Desktop/Audio_Sound/module_usb_audio/usb_buffer/usb_buffer.xc:332:29
	remu r0, r0, r3
	ldw r1, cp[.LCPI0_2]
	bt r0, .LBB0_20
.Ltmp95:
# BB#19:                                # %iftrue29
                                        #   in Loop: Header=BB0_3 Depth=1
.Lxtalabel24:
	#DEBUG_VALUE: buffer:c_aud_out <- R7
	#DEBUG_VALUE: buffer:c_aud_in <- R6
	#DEBUG_VALUE: buffer:c_sof <- R5
	#DEBUG_VALUE: buffer:c_aud_ctl <- R4
	#DEBUG_VALUE: buffer:c_hid <- R8
	#DEBUG_VALUE: buffer:p_off_mclk <- undef
	#DEBUG_VALUE: sampleFreq <- R3
	#DEBUG_VALUE: clocks <- 0
	#DEBUG_VALUE: clockcounter <- 0
	#DEBUG_VALUE: remnant <- 0
	#DEBUG_VALUE: sofCount <- 1
	#DEBUG_VALUE: mod_from_last_time <- 0
	#DEBUG_VALUE: cmd <- [SP+28]
	#DEBUG_VALUE: min <- undef
	#DEBUG_VALUE: mid <- undef
	#DEBUG_VALUE: max <- undef
	ldw r0, cp[.LCPI0_0]
	.loc	1 334 0                 # /Users/cwu/Desktop/Audio_Sound/module_usb_audio/usb_buffer/usb_buffer.xc:334:0
	{
		mov r1, r0
		nop
	}
.Ltmp96:
.LBB0_20:                               # %iftrue29
                                        #   in Loop: Header=BB0_3 Depth=1
.Lxtalabel25:
	#DEBUG_VALUE: buffer:c_aud_out <- R7
	#DEBUG_VALUE: buffer:c_aud_in <- R6
	#DEBUG_VALUE: buffer:c_sof <- R5
	#DEBUG_VALUE: buffer:c_aud_ctl <- R4
	#DEBUG_VALUE: buffer:c_hid <- R8
	#DEBUG_VALUE: buffer:p_off_mclk <- undef
	{
		ldc r0, 0
		stw r1, sp[3]
	}
	{
		mov r1, r0
		nop
	}
	{
		mkmsk r0, 1
		stw r1, sp[2]
	}
	{
		nop
		stw r0, sp[6]
	}
	{
		nop
		stw r1, sp[5]
	}
	{
		nop
		stw r1, sp[4]
	}
	{
		nop
		ldw r11, sp[7]
	}
.Ltmp97:
.LBB0_21:                               # %ifdone30
                                        #   in Loop: Header=BB0_3 Depth=1
.Lxtalabel26:
	#DEBUG_VALUE: buffer:c_aud_out <- R7
	#DEBUG_VALUE: buffer:c_aud_in <- R6
	#DEBUG_VALUE: buffer:c_sof <- R5
	#DEBUG_VALUE: buffer:c_aud_ctl <- R4
	#DEBUG_VALUE: buffer:c_hid <- R8
	#DEBUG_VALUE: buffer:p_off_mclk <- undef
	#DEBUG_VALUE: sampleFreq <- R3
	#DEBUG_VALUE: cmd <- R11
	{
		nop
		stw r3, sp[8]
	}
	.loc	1 344 0                 # /Users/cwu/Desktop/Audio_Sound/module_usb_audio/usb_buffer/usb_buffer.xc:344:0
	#APP
	stw r3, dp[g_freqChange_sampFreq]
	#NO_APP
	bu .LBB0_23
.Ltmp98:
.LBB0_13:                               # %iffalse
                                        #   in Loop: Header=BB0_3 Depth=1
.Lxtalabel27:
	#DEBUG_VALUE: buffer:c_aud_out <- R7
	#DEBUG_VALUE: buffer:c_aud_in <- R6
	#DEBUG_VALUE: buffer:c_sof <- R5
	#DEBUG_VALUE: buffer:c_aud_ctl <- R4
	#DEBUG_VALUE: buffer:c_hid <- R8
	#DEBUG_VALUE: buffer:p_off_mclk <- undef
	{
		eq r0, r11, 9
		nop
	}
	bf r0, .LBB0_23
.Ltmp99:
# BB#14:                                # %iftrue44
                                        #   in Loop: Header=BB0_3 Depth=1
.Lxtalabel28:
	#DEBUG_VALUE: buffer:c_aud_out <- R7
	#DEBUG_VALUE: buffer:c_aud_in <- R6
	#DEBUG_VALUE: buffer:c_sof <- R5
	#DEBUG_VALUE: buffer:c_aud_ctl <- R4
	#DEBUG_VALUE: buffer:c_hid <- R8
	#DEBUG_VALUE: buffer:p_off_mclk <- undef
	.loc	1 348 0                 # /Users/cwu/Desktop/Audio_Sound/module_usb_audio/usb_buffer/usb_buffer.xc:348:0
.Lxta.endpoint_labels7:
	{
		in r0, res[r4]
		nop
	}
.Ltmp100:
	#DEBUG_VALUE: formatChange_DataFormat <- R0
	.loc	1 349 0                 # /Users/cwu/Desktop/Audio_Sound/module_usb_audio/usb_buffer/usb_buffer.xc:349:0
.Lxta.endpoint_labels8:
	{
		in r1, res[r4]
		nop
	}
.Ltmp101:
	#DEBUG_VALUE: formatChange_NumChans <- R1
	.loc	1 350 0                 # /Users/cwu/Desktop/Audio_Sound/module_usb_audio/usb_buffer/usb_buffer.xc:350:0
.Lxta.endpoint_labels9:
	{
		in r2, res[r4]
		nop
	}
.Ltmp102:
	#DEBUG_VALUE: formatChange_SubSlot <- R2
	.loc	1 351 0                 # /Users/cwu/Desktop/Audio_Sound/module_usb_audio/usb_buffer/usb_buffer.xc:351:0
.Lxta.endpoint_labels10:
	{
		in r3, res[r4]
		nop
	}
.Ltmp103:
	#DEBUG_VALUE: formatChange_SampRes <- R3
	.loc	1 353 0                 # /Users/cwu/Desktop/Audio_Sound/module_usb_audio/usb_buffer/usb_buffer.xc:353:0
	#APP
	stw r1, dp[g_formatChange_NumChans]
	#NO_APP
	.loc	1 354 0                 # /Users/cwu/Desktop/Audio_Sound/module_usb_audio/usb_buffer/usb_buffer.xc:354:0
	#APP
	stw r2, dp[g_formatChange_SubSlot]
	#NO_APP
	.loc	1 355 0                 # /Users/cwu/Desktop/Audio_Sound/module_usb_audio/usb_buffer/usb_buffer.xc:355:0
	#APP
	stw r0, dp[g_formatChange_DataFormat]
	#NO_APP
	.loc	1 356 0                 # /Users/cwu/Desktop/Audio_Sound/module_usb_audio/usb_buffer/usb_buffer.xc:356:0
	#APP
	stw r3, dp[g_formatChange_SampRes]
	#NO_APP
	bu .LBB0_23
.Ltmp104:
.LBB0_15:                               # %iftrue14
.Lxtalabel29:
	#DEBUG_VALUE: buffer:c_aud_ctl <- R4
	.loc	1 300 0                 # /Users/cwu/Desktop/Audio_Sound/module_usb_audio/usb_buffer/usb_buffer.xc:300:0
.Lxta.endpoint_labels11:
	{
		inct r0, res[r4]
		nop
	}
	.loc	1 301 0                 # /Users/cwu/Desktop/Audio_Sound/module_usb_audio/usb_buffer/usb_buffer.xc:301:0
.Lxta.endpoint_labels12:
	{
		outct res[r4], 1
		nop
	}
.Ltmp105:
.LBB0_16:                               # %LoopTest20
                                        # =>This Inner Loop Header: Depth=1
	.loc	1 302 20                # /Users/cwu/Desktop/Audio_Sound/module_usb_audio/usb_buffer/usb_buffer.xc:302:20
	bu .LBB0_16
.Ltmp106:
	.cc_bottom buffer.function
	.set	buffer.nstackwords,((XUD_InitEp.nstackwords $M GetADCCounts.nstackwords $M __divdi3.nstackwords $M __moddi3.nstackwords $M XUD_GetData_Select.nstackwords $M XUD_SetData_Select.nstackwords $M UserReadHIDButtons.nstackwords) + 28)
	.globl	buffer.nstackwords
	.set	buffer.maxcores,GetADCCounts.maxcores $M UserReadHIDButtons.maxcores $M XUD_GetData_Select.maxcores $M XUD_InitEp.maxcores $M XUD_SetData_Select.maxcores $M 1
	.globl	buffer.maxcores
	.set	buffer.maxtimers,GetADCCounts.maxtimers $M UserReadHIDButtons.maxtimers $M XUD_GetData_Select.maxtimers $M XUD_InitEp.maxtimers $M XUD_SetData_Select.maxtimers $M 0
	.globl	buffer.maxtimers
	.set	buffer.maxchanends,GetADCCounts.maxchanends $M UserReadHIDButtons.maxchanends $M XUD_GetData_Select.maxchanends $M XUD_InitEp.maxchanends $M XUD_SetData_Select.maxchanends $M 0
	.globl	buffer.maxchanends
.Ltmp107:
	.size	buffer, .Ltmp107-buffer
.Lfunc_end0:
	.cfi_endproc

	.section	.dp.bss,"awd",@nobits
	.cc_top g_hidData.data,g_hidData
	.globl	g_hidData.globound
g_hidData.globound = 1
	.globl	g_hidData
	.align	8
	.type	g_hidData,@object
	.size	g_hidData, 1
g_hidData:
	.space	1
	.space	3
	.cc_bottom g_hidData.data
	.section	.dp.bss.4,"awd",@nobits
	.cc_top g_speed.data,g_speed
	.globl	g_speed
	.align	4
	.type	g_speed,@object
	.size	g_speed, 4
g_speed:
	.long	0                       # 0x0
	.cc_bottom g_speed.data
	.cc_top g_freqChange.data,g_freqChange
	.globl	g_freqChange
	.align	4
	.type	g_freqChange,@object
	.size	g_freqChange, 4
g_freqChange:
	.long	0                       # 0x0
	.cc_bottom g_freqChange.data
	.section	.dp.bss,"awd",@nobits
	.cc_top fb_clocks.data,fb_clocks
	.globl	fb_clocks.globound
fb_clocks.globound = 16
	.globl	fb_clocks
	.align	8
	.type	fb_clocks,@object
	.size	fb_clocks, 16
fb_clocks:
	.space	16
	.cc_bottom fb_clocks.data
	.section	.dp.bss.4,"awd",@nobits
.Ldebug_end0:
	.section	.dp.bss,"awd",@nobits
.Ldebug_end1:
	.text
.Ldebug_end2:
	.file	4 "/Applications/XMOS_XTC_15.3.1/target/include/timer.h"
	.file	5 "/Users/cwu/Desktop/Audio_Sound/module_usb_audio/usb_buffer/xc_ptr.h"
	.section	.xtacalltable,"",@progbits
.Lentries_start0:
	.long	.Lentries_end1-.Lentries_start0
	.long	0
	.ascii	"/Users/cwu/Desktop/Audio_Sound/app_usb_aud_xk_216_mc/.build_2i4o4xxxxx"
	.byte	0
.cc_top cc_0,.Lxta.call_labels0
	.ascii	"/Users/cwu/Desktop/Audio_Sound/module_usb_audio/usb_buffer/usb_buffer.xc"
	.byte	0
	.long	135
	.long	.Lxta.call_labels0
.cc_bottom cc_0
.cc_top cc_1,.Lxta.call_labels1
	.ascii	"/Users/cwu/Desktop/Audio_Sound/module_usb_audio/usb_buffer/usb_buffer.xc"
	.byte	0
	.long	136
	.long	.Lxta.call_labels1
.cc_bottom cc_1
.cc_top cc_2,.Lxta.call_labels2
	.ascii	"/Users/cwu/Desktop/Audio_Sound/module_usb_audio/usb_buffer/usb_buffer.xc"
	.byte	0
	.long	160
	.long	.Lxta.call_labels2
.cc_bottom cc_2
.cc_top cc_3,.Lxta.call_labels7
	.ascii	"/Users/cwu/Desktop/Audio_Sound/module_usb_audio/usb_buffer/usb_buffer.xc"
	.byte	0
	.long	329
	.long	.Lxta.call_labels7
.cc_bottom cc_3
.cc_top cc_4,.Lxta.call_labels4
	.ascii	"/Users/cwu/Desktop/Audio_Sound/module_usb_audio/usb_buffer/usb_buffer.xc"
	.byte	0
	.long	547
	.long	.Lxta.call_labels4
.cc_bottom cc_4
.cc_top cc_5,.Lxta.call_labels3
	.ascii	"/Users/cwu/Desktop/Audio_Sound/module_usb_audio/usb_buffer/usb_buffer.xc"
	.byte	0
	.long	576
	.long	.Lxta.call_labels3
.cc_bottom cc_5
.cc_top cc_6,.Lxta.call_labels5
	.ascii	"/Users/cwu/Desktop/Audio_Sound/module_usb_audio/usb_buffer/usb_buffer.xc"
	.byte	0
	.long	726
	.long	.Lxta.call_labels5
.cc_bottom cc_6
.cc_top cc_7,.Lxta.call_labels6
	.ascii	"/Users/cwu/Desktop/Audio_Sound/module_usb_audio/usb_buffer/usb_buffer.xc"
	.byte	0
	.long	729
	.long	.Lxta.call_labels6
.cc_bottom cc_7
.Lentries_end1:
	.section	.xtaendpointtable,"",@progbits
.Lentries_start2:
	.long	.Lentries_end3-.Lentries_start2
	.long	0
	.ascii	"/Users/cwu/Desktop/Audio_Sound/app_usb_aud_xk_216_mc/.build_2i4o4xxxxx"
	.byte	0
.cc_top cc_8,.Lxta.endpoint_labels11
	.ascii	"/Users/cwu/Desktop/Audio_Sound/module_usb_audio/usb_buffer/usb_buffer.xc"
	.byte	0
	.long	300
	.long	.Lxta.endpoint_labels11
.cc_bottom cc_8
.cc_top cc_9,.Lxta.endpoint_labels12
	.ascii	"/Users/cwu/Desktop/Audio_Sound/module_usb_audio/usb_buffer/usb_buffer.xc"
	.byte	0
	.long	301
	.long	.Lxta.endpoint_labels12
.cc_bottom cc_9
.cc_top cc_10,.Lxta.endpoint_labels1
	.ascii	"/Users/cwu/Desktop/Audio_Sound/module_usb_audio/usb_buffer/usb_buffer.xc"
	.byte	0
	.long	306
	.long	.Lxta.endpoint_labels1
.cc_bottom cc_10
.cc_top cc_11,.Lxta.endpoint_labels6
	.ascii	"/Users/cwu/Desktop/Audio_Sound/module_usb_audio/usb_buffer/usb_buffer.xc"
	.byte	0
	.long	310
	.long	.Lxta.endpoint_labels6
.cc_bottom cc_11
.cc_top cc_12,.Lxta.endpoint_labels7
	.ascii	"/Users/cwu/Desktop/Audio_Sound/module_usb_audio/usb_buffer/usb_buffer.xc"
	.byte	0
	.long	348
	.long	.Lxta.endpoint_labels7
.cc_bottom cc_12
.cc_top cc_13,.Lxta.endpoint_labels8
	.ascii	"/Users/cwu/Desktop/Audio_Sound/module_usb_audio/usb_buffer/usb_buffer.xc"
	.byte	0
	.long	349
	.long	.Lxta.endpoint_labels8
.cc_bottom cc_13
.cc_top cc_14,.Lxta.endpoint_labels9
	.ascii	"/Users/cwu/Desktop/Audio_Sound/module_usb_audio/usb_buffer/usb_buffer.xc"
	.byte	0
	.long	350
	.long	.Lxta.endpoint_labels9
.cc_bottom cc_14
.cc_top cc_15,.Lxta.endpoint_labels10
	.ascii	"/Users/cwu/Desktop/Audio_Sound/module_usb_audio/usb_buffer/usb_buffer.xc"
	.byte	0
	.long	351
	.long	.Lxta.endpoint_labels10
.cc_bottom cc_15
.cc_top cc_16,.Lxta.endpoint_labels2
	.ascii	"/Users/cwu/Desktop/Audio_Sound/module_usb_audio/usb_buffer/usb_buffer.xc"
	.byte	0
	.long	361
	.long	.Lxta.endpoint_labels2
.cc_bottom cc_16
.cc_top cc_17,.Lxta.endpoint_labels3
	.ascii	"/Users/cwu/Desktop/Audio_Sound/module_usb_audio/usb_buffer/usb_buffer.xc"
	.byte	0
	.long	362
	.long	.Lxta.endpoint_labels3
.cc_bottom cc_17
.cc_top cc_18,.Lxta.endpoint_labels4
	.ascii	"/Users/cwu/Desktop/Audio_Sound/module_usb_audio/usb_buffer/usb_buffer.xc"
	.byte	0
	.long	363
	.long	.Lxta.endpoint_labels4
.cc_bottom cc_18
.cc_top cc_19,.Lxta.endpoint_labels5
	.ascii	"/Users/cwu/Desktop/Audio_Sound/module_usb_audio/usb_buffer/usb_buffer.xc"
	.byte	0
	.long	364
	.long	.Lxta.endpoint_labels5
.cc_bottom cc_19
.cc_top cc_20,.Lxta.endpoint_labels0
	.ascii	"/Users/cwu/Desktop/Audio_Sound/module_usb_audio/usb_buffer/usb_buffer.xc"
	.byte	0
	.long	400
	.long	.Lxta.endpoint_labels0
.cc_bottom cc_20
.Lentries_end3:
	.section	.xtalabeltable,"",@progbits
.Lentries_start4:
	.long	.Lentries_end5-.Lentries_start4
	.long	0
	.ascii	"/Users/cwu/Desktop/Audio_Sound/app_usb_aud_xk_216_mc/.build_2i4o4xxxxx"
	.byte	0
.cc_top cc_21,.Lxtalabel18
	.ascii	"/Users/cwu/Desktop/Audio_Sound/module_usb_audio/usb_buffer/testct_byref.h"
	.byte	0
	.long	7
	.long	8
	.long	.Lxtalabel18
.cc_bottom cc_21
.cc_top cc_22,.Lxtalabel18
	.ascii	"/Users/cwu/Desktop/Audio_Sound/module_usb_audio/usb_buffer/testct_byref.h"
	.byte	0
	.long	16
	.long	16
	.long	.Lxtalabel18
.cc_bottom cc_22
.cc_top cc_23,.Lxtalabel0
	.ascii	"/Users/cwu/Desktop/Audio_Sound/module_usb_audio/usb_buffer/usb_buffer.xc"
	.byte	0
	.long	134
	.long	136
	.long	.Lxtalabel0
.cc_bottom cc_23
.cc_top cc_24,.Lxtalabel0
	.ascii	"/Users/cwu/Desktop/Audio_Sound/module_usb_audio/usb_buffer/usb_buffer.xc"
	.byte	0
	.long	160
	.long	160
	.long	.Lxtalabel0
.cc_bottom cc_24
.cc_top cc_25,.Lxtalabel0
	.ascii	"/Users/cwu/Desktop/Audio_Sound/module_usb_audio/usb_buffer/usb_buffer.xc"
	.byte	0
	.long	162
	.long	165
	.long	.Lxtalabel0
.cc_bottom cc_25
.cc_top cc_26,.Lxtalabel0
	.ascii	"/Users/cwu/Desktop/Audio_Sound/module_usb_audio/usb_buffer/usb_buffer.xc"
	.byte	0
	.long	167
	.long	168
	.long	.Lxtalabel0
.cc_bottom cc_26
.cc_top cc_27,.Lxtalabel0
	.ascii	"/Users/cwu/Desktop/Audio_Sound/module_usb_audio/usb_buffer/usb_buffer.xc"
	.byte	0
	.long	172
	.long	172
	.long	.Lxtalabel0
.cc_bottom cc_27
.cc_top cc_28,.Lxtalabel0
	.ascii	"/Users/cwu/Desktop/Audio_Sound/module_usb_audio/usb_buffer/usb_buffer.xc"
	.byte	0
	.long	174
	.long	176
	.long	.Lxtalabel0
.cc_bottom cc_28
.cc_top cc_29,.Lxtalabel0
	.ascii	"/Users/cwu/Desktop/Audio_Sound/module_usb_audio/usb_buffer/usb_buffer.xc"
	.byte	0
	.long	178
	.long	178
	.long	.Lxtalabel0
.cc_bottom cc_29
.cc_top cc_30,.Lxtalabel0
	.ascii	"/Users/cwu/Desktop/Audio_Sound/module_usb_audio/usb_buffer/usb_buffer.xc"
	.byte	0
	.long	183
	.long	183
	.long	.Lxtalabel0
.cc_bottom cc_30
.cc_top cc_31,.Lxtalabel0
	.ascii	"/Users/cwu/Desktop/Audio_Sound/module_usb_audio/usb_buffer/usb_buffer.xc"
	.byte	0
	.long	226
	.long	228
	.long	.Lxtalabel0
.cc_bottom cc_31
.cc_top cc_32,.Lxtalabel0
	.ascii	"/Users/cwu/Desktop/Audio_Sound/module_usb_audio/usb_buffer/usb_buffer.xc"
	.byte	0
	.long	235
	.long	235
	.long	.Lxtalabel0
.cc_bottom cc_32
.cc_top cc_33,.Lxtalabel0
	.ascii	"/Users/cwu/Desktop/Audio_Sound/module_usb_audio/usb_buffer/usb_buffer.xc"
	.byte	0
	.long	239
	.long	239
	.long	.Lxtalabel0
.cc_bottom cc_33
.cc_top cc_34,.Lxtalabel0
	.ascii	"/Users/cwu/Desktop/Audio_Sound/module_usb_audio/usb_buffer/usb_buffer.xc"
	.byte	0
	.long	242
	.long	242
	.long	.Lxtalabel0
.cc_bottom cc_34
.cc_top cc_35,.Lxtalabel0
	.ascii	"/Users/cwu/Desktop/Audio_Sound/module_usb_audio/usb_buffer/usb_buffer.xc"
	.byte	0
	.long	258
	.long	258
	.long	.Lxtalabel0
.cc_bottom cc_35
.cc_top cc_36,.Lxtalabel0
	.ascii	"/Users/cwu/Desktop/Audio_Sound/module_usb_audio/usb_buffer/usb_buffer.xc"
	.byte	0
	.long	261
	.long	261
	.long	.Lxtalabel0
.cc_bottom cc_36
.cc_top cc_37,.Lxtalabel5
	.ascii	"/Users/cwu/Desktop/Audio_Sound/module_usb_audio/usb_buffer/usb_buffer.xc"
	.byte	0
	.long	262
	.long	264
	.long	.Lxtalabel5
.cc_bottom cc_37
.cc_top cc_38,.Lxtalabel5
	.ascii	"/Users/cwu/Desktop/Audio_Sound/module_usb_audio/usb_buffer/usb_buffer.xc"
	.byte	0
	.long	267
	.long	268
	.long	.Lxtalabel5
.cc_bottom cc_38
.cc_top cc_39,.Lxtalabel5
	.ascii	"/Users/cwu/Desktop/Audio_Sound/module_usb_audio/usb_buffer/usb_buffer.xc"
	.byte	0
	.long	295
	.long	295
	.long	.Lxtalabel5
.cc_bottom cc_39
.cc_top cc_40,.Lxtalabel18
	.ascii	"/Users/cwu/Desktop/Audio_Sound/module_usb_audio/usb_buffer/usb_buffer.xc"
	.byte	0
	.long	296
	.long	297
	.long	.Lxtalabel18
.cc_bottom cc_40
.cc_top cc_41,.Lxtalabel29
	.ascii	"/Users/cwu/Desktop/Audio_Sound/module_usb_audio/usb_buffer/usb_buffer.xc"
	.byte	0
	.long	298
	.long	298
	.long	.Lxtalabel29
.cc_bottom cc_41
.cc_top cc_42,.Lxtalabel29
	.ascii	"/Users/cwu/Desktop/Audio_Sound/module_usb_audio/usb_buffer/usb_buffer.xc"
	.byte	0
	.long	300
	.long	300
	.long	.Lxtalabel29
.cc_bottom cc_42
.cc_top cc_43,.Lxtalabel29
	.ascii	"/Users/cwu/Desktop/Audio_Sound/module_usb_audio/usb_buffer/usb_buffer.xc"
	.byte	0
	.long	301
	.long	301
	.long	.Lxtalabel29
.cc_bottom cc_43
.cc_top cc_44,.Lxtalabel29
	.ascii	"/Users/cwu/Desktop/Audio_Sound/module_usb_audio/usb_buffer/usb_buffer.xc"
	.byte	0
	.long	302
	.long	302
	.long	.Lxtalabel29
.cc_bottom cc_44
.cc_top cc_45,.Lxtalabel20
	.ascii	"/Users/cwu/Desktop/Audio_Sound/module_usb_audio/usb_buffer/usb_buffer.xc"
	.byte	0
	.long	304
	.long	306
	.long	.Lxtalabel20
.cc_bottom cc_45
.cc_top cc_46,.Lxtalabel19
	.ascii	"/Users/cwu/Desktop/Audio_Sound/module_usb_audio/usb_buffer/usb_buffer.xc"
	.byte	0
	.long	304
	.long	306
	.long	.Lxtalabel19
.cc_bottom cc_46
.cc_top cc_47,.Lxtalabel27
	.ascii	"/Users/cwu/Desktop/Audio_Sound/module_usb_audio/usb_buffer/usb_buffer.xc"
	.byte	0
	.long	304
	.long	306
	.long	.Lxtalabel27
.cc_bottom cc_47
.cc_top cc_48,.Lxtalabel19
	.ascii	"/Users/cwu/Desktop/Audio_Sound/module_usb_audio/usb_buffer/usb_buffer.xc"
	.byte	0
	.long	308
	.long	308
	.long	.Lxtalabel19
.cc_bottom cc_48
.cc_top cc_49,.Lxtalabel20
	.ascii	"/Users/cwu/Desktop/Audio_Sound/module_usb_audio/usb_buffer/usb_buffer.xc"
	.byte	0
	.long	308
	.long	308
	.long	.Lxtalabel20
.cc_bottom cc_49
.cc_top cc_50,.Lxtalabel27
	.ascii	"/Users/cwu/Desktop/Audio_Sound/module_usb_audio/usb_buffer/usb_buffer.xc"
	.byte	0
	.long	308
	.long	308
	.long	.Lxtalabel27
.cc_bottom cc_50
.cc_top cc_51,.Lxtalabel22
	.ascii	"/Users/cwu/Desktop/Audio_Sound/module_usb_audio/usb_buffer/usb_buffer.xc"
	.byte	0
	.long	309
	.long	310
	.long	.Lxtalabel22
.cc_bottom cc_51
.cc_top cc_52,.Lxtalabel22
	.ascii	"/Users/cwu/Desktop/Audio_Sound/module_usb_audio/usb_buffer/usb_buffer.xc"
	.byte	0
	.long	313
	.long	313
	.long	.Lxtalabel22
.cc_bottom cc_52
.cc_top cc_53,.Lxtalabel23
	.ascii	"/Users/cwu/Desktop/Audio_Sound/module_usb_audio/usb_buffer/usb_buffer.xc"
	.byte	0
	.long	314
	.long	314
	.long	.Lxtalabel23
.cc_bottom cc_53
.cc_top cc_54,.Lxtalabel24
	.ascii	"/Users/cwu/Desktop/Audio_Sound/module_usb_audio/usb_buffer/usb_buffer.xc"
	.byte	0
	.long	314
	.long	314
	.long	.Lxtalabel24
.cc_bottom cc_54
.cc_top cc_55,.Lxtalabel25
	.ascii	"/Users/cwu/Desktop/Audio_Sound/module_usb_audio/usb_buffer/usb_buffer.xc"
	.byte	0
	.long	314
	.long	314
	.long	.Lxtalabel25
.cc_bottom cc_55
.cc_top cc_56,.Lxtalabel23
	.ascii	"/Users/cwu/Desktop/Audio_Sound/module_usb_audio/usb_buffer/usb_buffer.xc"
	.byte	0
	.long	321
	.long	325
	.long	.Lxtalabel23
.cc_bottom cc_56
.cc_top cc_57,.Lxtalabel25
	.ascii	"/Users/cwu/Desktop/Audio_Sound/module_usb_audio/usb_buffer/usb_buffer.xc"
	.byte	0
	.long	321
	.long	325
	.long	.Lxtalabel25
.cc_bottom cc_57
.cc_top cc_58,.Lxtalabel24
	.ascii	"/Users/cwu/Desktop/Audio_Sound/module_usb_audio/usb_buffer/usb_buffer.xc"
	.byte	0
	.long	321
	.long	325
	.long	.Lxtalabel24
.cc_bottom cc_58
.cc_top cc_59,.Lxtalabel24
	.ascii	"/Users/cwu/Desktop/Audio_Sound/module_usb_audio/usb_buffer/usb_buffer.xc"
	.byte	0
	.long	328
	.long	330
	.long	.Lxtalabel24
.cc_bottom cc_59
.cc_top cc_60,.Lxtalabel23
	.ascii	"/Users/cwu/Desktop/Audio_Sound/module_usb_audio/usb_buffer/usb_buffer.xc"
	.byte	0
	.long	328
	.long	330
	.long	.Lxtalabel23
.cc_bottom cc_60
.cc_top cc_61,.Lxtalabel25
	.ascii	"/Users/cwu/Desktop/Audio_Sound/module_usb_audio/usb_buffer/usb_buffer.xc"
	.byte	0
	.long	328
	.long	330
	.long	.Lxtalabel25
.cc_bottom cc_61
.cc_top cc_62,.Lxtalabel23
	.ascii	"/Users/cwu/Desktop/Audio_Sound/module_usb_audio/usb_buffer/usb_buffer.xc"
	.byte	0
	.long	332
	.long	332
	.long	.Lxtalabel23
.cc_bottom cc_62
.cc_top cc_63,.Lxtalabel25
	.ascii	"/Users/cwu/Desktop/Audio_Sound/module_usb_audio/usb_buffer/usb_buffer.xc"
	.byte	0
	.long	332
	.long	332
	.long	.Lxtalabel25
.cc_bottom cc_63
.cc_top cc_64,.Lxtalabel24
	.ascii	"/Users/cwu/Desktop/Audio_Sound/module_usb_audio/usb_buffer/usb_buffer.xc"
	.byte	0
	.long	332
	.long	332
	.long	.Lxtalabel24
.cc_bottom cc_64
.cc_top cc_65,.Lxtalabel26
	.ascii	"/Users/cwu/Desktop/Audio_Sound/module_usb_audio/usb_buffer/usb_buffer.xc"
	.byte	0
	.long	344
	.long	344
	.long	.Lxtalabel26
.cc_bottom cc_65
.cc_top cc_66,.Lxtalabel26
	.ascii	"/Users/cwu/Desktop/Audio_Sound/module_usb_audio/usb_buffer/usb_buffer.xc"
	.byte	0
	.long	345
	.long	345
	.long	.Lxtalabel26
.cc_bottom cc_66
.cc_top cc_67,.Lxtalabel28
	.ascii	"/Users/cwu/Desktop/Audio_Sound/module_usb_audio/usb_buffer/usb_buffer.xc"
	.byte	0
	.long	347
	.long	351
	.long	.Lxtalabel28
.cc_bottom cc_67
.cc_top cc_68,.Lxtalabel28
	.ascii	"/Users/cwu/Desktop/Audio_Sound/module_usb_audio/usb_buffer/usb_buffer.xc"
	.byte	0
	.long	353
	.long	353
	.long	.Lxtalabel28
.cc_bottom cc_68
.cc_top cc_69,.Lxtalabel28
	.ascii	"/Users/cwu/Desktop/Audio_Sound/module_usb_audio/usb_buffer/usb_buffer.xc"
	.byte	0
	.long	354
	.long	354
	.long	.Lxtalabel28
.cc_bottom cc_69
.cc_top cc_70,.Lxtalabel28
	.ascii	"/Users/cwu/Desktop/Audio_Sound/module_usb_audio/usb_buffer/usb_buffer.xc"
	.byte	0
	.long	355
	.long	355
	.long	.Lxtalabel28
.cc_bottom cc_70
.cc_top cc_71,.Lxtalabel28
	.ascii	"/Users/cwu/Desktop/Audio_Sound/module_usb_audio/usb_buffer/usb_buffer.xc"
	.byte	0
	.long	356
	.long	356
	.long	.Lxtalabel28
.cc_bottom cc_71
.cc_top cc_72,.Lxtalabel28
	.ascii	"/Users/cwu/Desktop/Audio_Sound/module_usb_audio/usb_buffer/usb_buffer.xc"
	.byte	0
	.long	357
	.long	357
	.long	.Lxtalabel28
.cc_bottom cc_72
.cc_top cc_73,.Lxtalabel21
	.ascii	"/Users/cwu/Desktop/Audio_Sound/module_usb_audio/usb_buffer/usb_buffer.xc"
	.byte	0
	.long	359
	.long	364
	.long	.Lxtalabel21
.cc_bottom cc_73
.cc_top cc_74,.Lxtalabel21
	.ascii	"/Users/cwu/Desktop/Audio_Sound/module_usb_audio/usb_buffer/usb_buffer.xc"
	.byte	0
	.long	366
	.long	366
	.long	.Lxtalabel21
.cc_bottom cc_74
.cc_top cc_75,.Lxtalabel21
	.ascii	"/Users/cwu/Desktop/Audio_Sound/module_usb_audio/usb_buffer/usb_buffer.xc"
	.byte	0
	.long	367
	.long	367
	.long	.Lxtalabel21
.cc_bottom cc_75
.cc_top cc_76,.Lxtalabel21
	.ascii	"/Users/cwu/Desktop/Audio_Sound/module_usb_audio/usb_buffer/usb_buffer.xc"
	.byte	0
	.long	368
	.long	368
	.long	.Lxtalabel21
.cc_bottom cc_76
.cc_top cc_77,.Lxtalabel21
	.ascii	"/Users/cwu/Desktop/Audio_Sound/module_usb_audio/usb_buffer/usb_buffer.xc"
	.byte	0
	.long	369
	.long	369
	.long	.Lxtalabel21
.cc_bottom cc_77
.cc_top cc_78,.Lxtalabel21
	.ascii	"/Users/cwu/Desktop/Audio_Sound/module_usb_audio/usb_buffer/usb_buffer.xc"
	.byte	0
	.long	386
	.long	386
	.long	.Lxtalabel21
.cc_bottom cc_78
.cc_top cc_79,.Lxtalabel2
	.ascii	"/Users/cwu/Desktop/Audio_Sound/module_usb_audio/usb_buffer/usb_buffer.xc"
	.byte	0
	.long	389
	.long	389
	.long	.Lxtalabel2
.cc_bottom cc_79
.cc_top cc_80,.Lxtalabel2
	.ascii	"/Users/cwu/Desktop/Audio_Sound/module_usb_audio/usb_buffer/usb_buffer.xc"
	.byte	0
	.long	390
	.long	390
	.long	.Lxtalabel2
.cc_bottom cc_80
.cc_top cc_81,.Lxtalabel2
	.ascii	"/Users/cwu/Desktop/Audio_Sound/module_usb_audio/usb_buffer/usb_buffer.xc"
	.byte	0
	.long	391
	.long	391
	.long	.Lxtalabel2
.cc_bottom cc_81
.cc_top cc_82,.Lxtalabel2
	.ascii	"/Users/cwu/Desktop/Audio_Sound/module_usb_audio/usb_buffer/usb_buffer.xc"
	.byte	0
	.long	392
	.long	393
	.long	.Lxtalabel2
.cc_bottom cc_82
.cc_top cc_83,.Lxtalabel2
	.ascii	"/Users/cwu/Desktop/Audio_Sound/module_usb_audio/usb_buffer/usb_buffer.xc"
	.byte	0
	.long	400
	.long	400
	.long	.Lxtalabel2
.cc_bottom cc_83
.cc_top cc_84,.Lxtalabel9
	.ascii	"/Users/cwu/Desktop/Audio_Sound/module_usb_audio/usb_buffer/usb_buffer.xc"
	.byte	0
	.long	406
	.long	406
	.long	.Lxtalabel9
.cc_bottom cc_84
.cc_top cc_85,.Lxtalabel9
	.ascii	"/Users/cwu/Desktop/Audio_Sound/module_usb_audio/usb_buffer/usb_buffer.xc"
	.byte	0
	.long	408
	.long	408
	.long	.Lxtalabel9
.cc_bottom cc_85
.cc_top cc_86,.Lxtalabel9
	.ascii	"/Users/cwu/Desktop/Audio_Sound/module_usb_audio/usb_buffer/usb_buffer.xc"
	.byte	0
	.long	409
	.long	409
	.long	.Lxtalabel9
.cc_bottom cc_86
.cc_top cc_87,.Lxtalabel9
	.ascii	"/Users/cwu/Desktop/Audio_Sound/module_usb_audio/usb_buffer/usb_buffer.xc"
	.byte	0
	.long	410
	.long	410
	.long	.Lxtalabel9
.cc_bottom cc_87
.cc_top cc_88,.Lxtalabel9
	.ascii	"/Users/cwu/Desktop/Audio_Sound/module_usb_audio/usb_buffer/usb_buffer.xc"
	.byte	0
	.long	412
	.long	413
	.long	.Lxtalabel9
.cc_bottom cc_88
.cc_top cc_89,.Lxtalabel11
	.ascii	"/Users/cwu/Desktop/Audio_Sound/module_usb_audio/usb_buffer/usb_buffer.xc"
	.byte	0
	.long	414
	.long	416
	.long	.Lxtalabel11
.cc_bottom cc_89
.cc_top cc_90,.Lxtalabel12
	.ascii	"/Users/cwu/Desktop/Audio_Sound/module_usb_audio/usb_buffer/usb_buffer.xc"
	.byte	0
	.long	414
	.long	416
	.long	.Lxtalabel12
.cc_bottom cc_90
.cc_top cc_91,.Lxtalabel10
	.ascii	"/Users/cwu/Desktop/Audio_Sound/module_usb_audio/usb_buffer/usb_buffer.xc"
	.byte	0
	.long	414
	.long	416
	.long	.Lxtalabel10
.cc_bottom cc_91
.cc_top cc_92,.Lxtalabel10
	.ascii	"/Users/cwu/Desktop/Audio_Sound/module_usb_audio/usb_buffer/usb_buffer.xc"
	.byte	0
	.long	417
	.long	417
	.long	.Lxtalabel10
.cc_bottom cc_92
.cc_top cc_93,.Lxtalabel11
	.ascii	"/Users/cwu/Desktop/Audio_Sound/module_usb_audio/usb_buffer/usb_buffer.xc"
	.byte	0
	.long	417
	.long	417
	.long	.Lxtalabel11
.cc_bottom cc_93
.cc_top cc_94,.Lxtalabel12
	.ascii	"/Users/cwu/Desktop/Audio_Sound/module_usb_audio/usb_buffer/usb_buffer.xc"
	.byte	0
	.long	417
	.long	417
	.long	.Lxtalabel12
.cc_bottom cc_94
.cc_top cc_95,.Lxtalabel11
	.ascii	"/Users/cwu/Desktop/Audio_Sound/module_usb_audio/usb_buffer/usb_buffer.xc"
	.byte	0
	.long	477
	.long	477
	.long	.Lxtalabel11
.cc_bottom cc_95
.cc_top cc_96,.Lxtalabel12
	.ascii	"/Users/cwu/Desktop/Audio_Sound/module_usb_audio/usb_buffer/usb_buffer.xc"
	.byte	0
	.long	477
	.long	477
	.long	.Lxtalabel12
.cc_bottom cc_96
.cc_top cc_97,.Lxtalabel10
	.ascii	"/Users/cwu/Desktop/Audio_Sound/module_usb_audio/usb_buffer/usb_buffer.xc"
	.byte	0
	.long	477
	.long	477
	.long	.Lxtalabel10
.cc_bottom cc_97
.cc_top cc_98,.Lxtalabel10
	.ascii	"/Users/cwu/Desktop/Audio_Sound/module_usb_audio/usb_buffer/usb_buffer.xc"
	.byte	0
	.long	479
	.long	479
	.long	.Lxtalabel10
.cc_bottom cc_98
.cc_top cc_99,.Lxtalabel12
	.ascii	"/Users/cwu/Desktop/Audio_Sound/module_usb_audio/usb_buffer/usb_buffer.xc"
	.byte	0
	.long	479
	.long	479
	.long	.Lxtalabel12
.cc_bottom cc_99
.cc_top cc_100,.Lxtalabel11
	.ascii	"/Users/cwu/Desktop/Audio_Sound/module_usb_audio/usb_buffer/usb_buffer.xc"
	.byte	0
	.long	479
	.long	479
	.long	.Lxtalabel11
.cc_bottom cc_100
.cc_top cc_101,.Lxtalabel10
	.ascii	"/Users/cwu/Desktop/Audio_Sound/module_usb_audio/usb_buffer/usb_buffer.xc"
	.byte	0
	.long	480
	.long	480
	.long	.Lxtalabel10
.cc_bottom cc_101
.cc_top cc_102,.Lxtalabel12
	.ascii	"/Users/cwu/Desktop/Audio_Sound/module_usb_audio/usb_buffer/usb_buffer.xc"
	.byte	0
	.long	480
	.long	480
	.long	.Lxtalabel12
.cc_bottom cc_102
.cc_top cc_103,.Lxtalabel11
	.ascii	"/Users/cwu/Desktop/Audio_Sound/module_usb_audio/usb_buffer/usb_buffer.xc"
	.byte	0
	.long	480
	.long	480
	.long	.Lxtalabel11
.cc_bottom cc_103
.cc_top cc_104,.Lxtalabel12
	.ascii	"/Users/cwu/Desktop/Audio_Sound/module_usb_audio/usb_buffer/usb_buffer.xc"
	.byte	0
	.long	483
	.long	483
	.long	.Lxtalabel12
.cc_bottom cc_104
.cc_top cc_105,.Lxtalabel10
	.ascii	"/Users/cwu/Desktop/Audio_Sound/module_usb_audio/usb_buffer/usb_buffer.xc"
	.byte	0
	.long	483
	.long	483
	.long	.Lxtalabel10
.cc_bottom cc_105
.cc_top cc_106,.Lxtalabel11
	.ascii	"/Users/cwu/Desktop/Audio_Sound/module_usb_audio/usb_buffer/usb_buffer.xc"
	.byte	0
	.long	483
	.long	483
	.long	.Lxtalabel11
.cc_bottom cc_106
.cc_top cc_107,.Lxtalabel12
	.ascii	"/Users/cwu/Desktop/Audio_Sound/module_usb_audio/usb_buffer/usb_buffer.xc"
	.byte	0
	.long	485
	.long	485
	.long	.Lxtalabel12
.cc_bottom cc_107
.cc_top cc_108,.Lxtalabel10
	.ascii	"/Users/cwu/Desktop/Audio_Sound/module_usb_audio/usb_buffer/usb_buffer.xc"
	.byte	0
	.long	485
	.long	485
	.long	.Lxtalabel10
.cc_bottom cc_108
.cc_top cc_109,.Lxtalabel11
	.ascii	"/Users/cwu/Desktop/Audio_Sound/module_usb_audio/usb_buffer/usb_buffer.xc"
	.byte	0
	.long	485
	.long	485
	.long	.Lxtalabel11
.cc_bottom cc_109
.cc_top cc_110,.Lxtalabel10
	.ascii	"/Users/cwu/Desktop/Audio_Sound/module_usb_audio/usb_buffer/usb_buffer.xc"
	.byte	0
	.long	487
	.long	487
	.long	.Lxtalabel10
.cc_bottom cc_110
.cc_top cc_111,.Lxtalabel12
	.ascii	"/Users/cwu/Desktop/Audio_Sound/module_usb_audio/usb_buffer/usb_buffer.xc"
	.byte	0
	.long	487
	.long	487
	.long	.Lxtalabel12
.cc_bottom cc_111
.cc_top cc_112,.Lxtalabel11
	.ascii	"/Users/cwu/Desktop/Audio_Sound/module_usb_audio/usb_buffer/usb_buffer.xc"
	.byte	0
	.long	487
	.long	487
	.long	.Lxtalabel11
.cc_bottom cc_112
.cc_top cc_113,.Lxtalabel11
	.ascii	"/Users/cwu/Desktop/Audio_Sound/module_usb_audio/usb_buffer/usb_buffer.xc"
	.byte	0
	.long	490
	.long	490
	.long	.Lxtalabel11
.cc_bottom cc_113
.cc_top cc_114,.Lxtalabel12
	.ascii	"/Users/cwu/Desktop/Audio_Sound/module_usb_audio/usb_buffer/usb_buffer.xc"
	.byte	0
	.long	490
	.long	490
	.long	.Lxtalabel12
.cc_bottom cc_114
.cc_top cc_115,.Lxtalabel10
	.ascii	"/Users/cwu/Desktop/Audio_Sound/module_usb_audio/usb_buffer/usb_buffer.xc"
	.byte	0
	.long	490
	.long	490
	.long	.Lxtalabel10
.cc_bottom cc_115
.cc_top cc_116,.Lxtalabel10
	.ascii	"/Users/cwu/Desktop/Audio_Sound/module_usb_audio/usb_buffer/usb_buffer.xc"
	.byte	0
	.long	494
	.long	494
	.long	.Lxtalabel10
.cc_bottom cc_116
.cc_top cc_117,.Lxtalabel12
	.ascii	"/Users/cwu/Desktop/Audio_Sound/module_usb_audio/usb_buffer/usb_buffer.xc"
	.byte	0
	.long	494
	.long	494
	.long	.Lxtalabel12
.cc_bottom cc_117
.cc_top cc_118,.Lxtalabel11
	.ascii	"/Users/cwu/Desktop/Audio_Sound/module_usb_audio/usb_buffer/usb_buffer.xc"
	.byte	0
	.long	494
	.long	494
	.long	.Lxtalabel11
.cc_bottom cc_118
.cc_top cc_119,.Lxtalabel17
	.ascii	"/Users/cwu/Desktop/Audio_Sound/module_usb_audio/usb_buffer/usb_buffer.xc"
	.byte	0
	.long	495
	.long	496
	.long	.Lxtalabel17
.cc_bottom cc_119
.cc_top cc_120,.Lxtalabel13
	.ascii	"/Users/cwu/Desktop/Audio_Sound/module_usb_audio/usb_buffer/usb_buffer.xc"
	.byte	0
	.long	495
	.long	496
	.long	.Lxtalabel13
.cc_bottom cc_120
.cc_top cc_121,.Lxtalabel15
	.ascii	"/Users/cwu/Desktop/Audio_Sound/module_usb_audio/usb_buffer/usb_buffer.xc"
	.byte	0
	.long	495
	.long	496
	.long	.Lxtalabel15
.cc_bottom cc_121
.cc_top cc_122,.Lxtalabel16
	.ascii	"/Users/cwu/Desktop/Audio_Sound/module_usb_audio/usb_buffer/usb_buffer.xc"
	.byte	0
	.long	495
	.long	496
	.long	.Lxtalabel16
.cc_bottom cc_122
.cc_top cc_123,.Lxtalabel14
	.ascii	"/Users/cwu/Desktop/Audio_Sound/module_usb_audio/usb_buffer/usb_buffer.xc"
	.byte	0
	.long	495
	.long	496
	.long	.Lxtalabel14
.cc_bottom cc_123
.cc_top cc_124,.Lxtalabel14
	.ascii	"/Users/cwu/Desktop/Audio_Sound/module_usb_audio/usb_buffer/usb_buffer.xc"
	.byte	0
	.long	498
	.long	500
	.long	.Lxtalabel14
.cc_bottom cc_124
.cc_top cc_125,.Lxtalabel17
	.ascii	"/Users/cwu/Desktop/Audio_Sound/module_usb_audio/usb_buffer/usb_buffer.xc"
	.byte	0
	.long	498
	.long	500
	.long	.Lxtalabel17
.cc_bottom cc_125
.cc_top cc_126,.Lxtalabel13
	.ascii	"/Users/cwu/Desktop/Audio_Sound/module_usb_audio/usb_buffer/usb_buffer.xc"
	.byte	0
	.long	498
	.long	500
	.long	.Lxtalabel13
.cc_bottom cc_126
.cc_top cc_127,.Lxtalabel16
	.ascii	"/Users/cwu/Desktop/Audio_Sound/module_usb_audio/usb_buffer/usb_buffer.xc"
	.byte	0
	.long	498
	.long	500
	.long	.Lxtalabel16
.cc_bottom cc_127
.cc_top cc_128,.Lxtalabel15
	.ascii	"/Users/cwu/Desktop/Audio_Sound/module_usb_audio/usb_buffer/usb_buffer.xc"
	.byte	0
	.long	498
	.long	500
	.long	.Lxtalabel15
.cc_bottom cc_128
.cc_top cc_129,.Lxtalabel15
	.ascii	"/Users/cwu/Desktop/Audio_Sound/module_usb_audio/usb_buffer/usb_buffer.xc"
	.byte	0
	.long	502
	.long	502
	.long	.Lxtalabel15
.cc_bottom cc_129
.cc_top cc_130,.Lxtalabel13
	.ascii	"/Users/cwu/Desktop/Audio_Sound/module_usb_audio/usb_buffer/usb_buffer.xc"
	.byte	0
	.long	502
	.long	502
	.long	.Lxtalabel13
.cc_bottom cc_130
.cc_top cc_131,.Lxtalabel14
	.ascii	"/Users/cwu/Desktop/Audio_Sound/module_usb_audio/usb_buffer/usb_buffer.xc"
	.byte	0
	.long	502
	.long	502
	.long	.Lxtalabel14
.cc_bottom cc_131
.cc_top cc_132,.Lxtalabel16
	.ascii	"/Users/cwu/Desktop/Audio_Sound/module_usb_audio/usb_buffer/usb_buffer.xc"
	.byte	0
	.long	502
	.long	502
	.long	.Lxtalabel16
.cc_bottom cc_132
.cc_top cc_133,.Lxtalabel17
	.ascii	"/Users/cwu/Desktop/Audio_Sound/module_usb_audio/usb_buffer/usb_buffer.xc"
	.byte	0
	.long	502
	.long	502
	.long	.Lxtalabel17
.cc_bottom cc_133
.cc_top cc_134,.Lxtalabel17
	.ascii	"/Users/cwu/Desktop/Audio_Sound/module_usb_audio/usb_buffer/usb_buffer.xc"
	.byte	0
	.long	515
	.long	517
	.long	.Lxtalabel17
.cc_bottom cc_134
.cc_top cc_135,.Lxtalabel16
	.ascii	"/Users/cwu/Desktop/Audio_Sound/module_usb_audio/usb_buffer/usb_buffer.xc"
	.byte	0
	.long	515
	.long	517
	.long	.Lxtalabel16
.cc_bottom cc_135
.cc_top cc_136,.Lxtalabel14
	.ascii	"/Users/cwu/Desktop/Audio_Sound/module_usb_audio/usb_buffer/usb_buffer.xc"
	.byte	0
	.long	515
	.long	517
	.long	.Lxtalabel14
.cc_bottom cc_136
.cc_top cc_137,.Lxtalabel15
	.ascii	"/Users/cwu/Desktop/Audio_Sound/module_usb_audio/usb_buffer/usb_buffer.xc"
	.byte	0
	.long	515
	.long	517
	.long	.Lxtalabel15
.cc_bottom cc_137
.cc_top cc_138,.Lxtalabel13
	.ascii	"/Users/cwu/Desktop/Audio_Sound/module_usb_audio/usb_buffer/usb_buffer.xc"
	.byte	0
	.long	515
	.long	517
	.long	.Lxtalabel13
.cc_bottom cc_138
.cc_top cc_139,.Lxtalabel14
	.ascii	"/Users/cwu/Desktop/Audio_Sound/module_usb_audio/usb_buffer/usb_buffer.xc"
	.byte	0
	.long	519
	.long	519
	.long	.Lxtalabel14
.cc_bottom cc_139
.cc_top cc_140,.Lxtalabel15
	.ascii	"/Users/cwu/Desktop/Audio_Sound/module_usb_audio/usb_buffer/usb_buffer.xc"
	.byte	0
	.long	519
	.long	519
	.long	.Lxtalabel15
.cc_bottom cc_140
.cc_top cc_141,.Lxtalabel13
	.ascii	"/Users/cwu/Desktop/Audio_Sound/module_usb_audio/usb_buffer/usb_buffer.xc"
	.byte	0
	.long	519
	.long	519
	.long	.Lxtalabel13
.cc_bottom cc_141
.cc_top cc_142,.Lxtalabel16
	.ascii	"/Users/cwu/Desktop/Audio_Sound/module_usb_audio/usb_buffer/usb_buffer.xc"
	.byte	0
	.long	519
	.long	519
	.long	.Lxtalabel16
.cc_bottom cc_142
.cc_top cc_143,.Lxtalabel17
	.ascii	"/Users/cwu/Desktop/Audio_Sound/module_usb_audio/usb_buffer/usb_buffer.xc"
	.byte	0
	.long	519
	.long	519
	.long	.Lxtalabel17
.cc_bottom cc_143
.cc_top cc_144,.Lxtalabel13
	.ascii	"/Users/cwu/Desktop/Audio_Sound/module_usb_audio/usb_buffer/usb_buffer.xc"
	.byte	0
	.long	521
	.long	521
	.long	.Lxtalabel13
.cc_bottom cc_144
.cc_top cc_145,.Lxtalabel15
	.ascii	"/Users/cwu/Desktop/Audio_Sound/module_usb_audio/usb_buffer/usb_buffer.xc"
	.byte	0
	.long	521
	.long	521
	.long	.Lxtalabel15
.cc_bottom cc_145
.cc_top cc_146,.Lxtalabel17
	.ascii	"/Users/cwu/Desktop/Audio_Sound/module_usb_audio/usb_buffer/usb_buffer.xc"
	.byte	0
	.long	521
	.long	521
	.long	.Lxtalabel17
.cc_bottom cc_146
.cc_top cc_147,.Lxtalabel14
	.ascii	"/Users/cwu/Desktop/Audio_Sound/module_usb_audio/usb_buffer/usb_buffer.xc"
	.byte	0
	.long	521
	.long	521
	.long	.Lxtalabel14
.cc_bottom cc_147
.cc_top cc_148,.Lxtalabel16
	.ascii	"/Users/cwu/Desktop/Audio_Sound/module_usb_audio/usb_buffer/usb_buffer.xc"
	.byte	0
	.long	521
	.long	521
	.long	.Lxtalabel16
.cc_bottom cc_148
.cc_top cc_149,.Lxtalabel13
	.ascii	"/Users/cwu/Desktop/Audio_Sound/module_usb_audio/usb_buffer/usb_buffer.xc"
	.byte	0
	.long	529
	.long	529
	.long	.Lxtalabel13
.cc_bottom cc_149
.cc_top cc_150,.Lxtalabel16
	.ascii	"/Users/cwu/Desktop/Audio_Sound/module_usb_audio/usb_buffer/usb_buffer.xc"
	.byte	0
	.long	529
	.long	529
	.long	.Lxtalabel16
.cc_bottom cc_150
.cc_top cc_151,.Lxtalabel14
	.ascii	"/Users/cwu/Desktop/Audio_Sound/module_usb_audio/usb_buffer/usb_buffer.xc"
	.byte	0
	.long	529
	.long	529
	.long	.Lxtalabel14
.cc_bottom cc_151
.cc_top cc_152,.Lxtalabel17
	.ascii	"/Users/cwu/Desktop/Audio_Sound/module_usb_audio/usb_buffer/usb_buffer.xc"
	.byte	0
	.long	529
	.long	529
	.long	.Lxtalabel17
.cc_bottom cc_152
.cc_top cc_153,.Lxtalabel15
	.ascii	"/Users/cwu/Desktop/Audio_Sound/module_usb_audio/usb_buffer/usb_buffer.xc"
	.byte	0
	.long	529
	.long	529
	.long	.Lxtalabel15
.cc_bottom cc_153
.cc_top cc_154,.Lxtalabel15
	.ascii	"/Users/cwu/Desktop/Audio_Sound/module_usb_audio/usb_buffer/usb_buffer.xc"
	.byte	0
	.long	535
	.long	536
	.long	.Lxtalabel15
.cc_bottom cc_154
.cc_top cc_155,.Lxtalabel13
	.ascii	"/Users/cwu/Desktop/Audio_Sound/module_usb_audio/usb_buffer/usb_buffer.xc"
	.byte	0
	.long	535
	.long	536
	.long	.Lxtalabel13
.cc_bottom cc_155
.cc_top cc_156,.Lxtalabel16
	.ascii	"/Users/cwu/Desktop/Audio_Sound/module_usb_audio/usb_buffer/usb_buffer.xc"
	.byte	0
	.long	535
	.long	536
	.long	.Lxtalabel16
.cc_bottom cc_156
.cc_top cc_157,.Lxtalabel17
	.ascii	"/Users/cwu/Desktop/Audio_Sound/module_usb_audio/usb_buffer/usb_buffer.xc"
	.byte	0
	.long	535
	.long	536
	.long	.Lxtalabel17
.cc_bottom cc_157
.cc_top cc_158,.Lxtalabel14
	.ascii	"/Users/cwu/Desktop/Audio_Sound/module_usb_audio/usb_buffer/usb_buffer.xc"
	.byte	0
	.long	535
	.long	536
	.long	.Lxtalabel14
.cc_bottom cc_158
.cc_top cc_159,.Lxtalabel3
	.ascii	"/Users/cwu/Desktop/Audio_Sound/module_usb_audio/usb_buffer/usb_buffer.xc"
	.byte	0
	.long	539
	.long	540
	.long	.Lxtalabel3
.cc_bottom cc_159
.cc_top cc_160,.Lxtalabel6
	.ascii	"/Users/cwu/Desktop/Audio_Sound/module_usb_audio/usb_buffer/usb_buffer.xc"
	.byte	0
	.long	548
	.long	548
	.long	.Lxtalabel6
.cc_bottom cc_160
.cc_top cc_161,.Lxtalabel6
	.ascii	"/Users/cwu/Desktop/Audio_Sound/module_usb_audio/usb_buffer/usb_buffer.xc"
	.byte	0
	.long	550
	.long	550
	.long	.Lxtalabel6
.cc_bottom cc_161
.cc_top cc_162,.Lxtalabel6
	.ascii	"/Users/cwu/Desktop/Audio_Sound/module_usb_audio/usb_buffer/usb_buffer.xc"
	.byte	0
	.long	551
	.long	552
	.long	.Lxtalabel6
.cc_bottom cc_162
.cc_top cc_163,.Lxtalabel6
	.ascii	"/Users/cwu/Desktop/Audio_Sound/module_usb_audio/usb_buffer/usb_buffer.xc"
	.byte	0
	.long	576
	.long	576
	.long	.Lxtalabel6
.cc_bottom cc_163
.cc_top cc_164,.Lxtalabel4
	.ascii	"/Users/cwu/Desktop/Audio_Sound/module_usb_audio/usb_buffer/usb_buffer.xc"
	.byte	0
	.long	577
	.long	577
	.long	.Lxtalabel4
.cc_bottom cc_164
.cc_top cc_165,.Lxtalabel4
	.ascii	"/Users/cwu/Desktop/Audio_Sound/module_usb_audio/usb_buffer/usb_buffer.xc"
	.byte	0
	.long	578
	.long	578
	.long	.Lxtalabel4
.cc_bottom cc_165
.cc_top cc_166,.Lxtalabel4
	.ascii	"/Users/cwu/Desktop/Audio_Sound/module_usb_audio/usb_buffer/usb_buffer.xc"
	.byte	0
	.long	580
	.long	580
	.long	.Lxtalabel4
.cc_bottom cc_166
.cc_top cc_167,.Lxtalabel4
	.ascii	"/Users/cwu/Desktop/Audio_Sound/module_usb_audio/usb_buffer/usb_buffer.xc"
	.byte	0
	.long	583
	.long	583
	.long	.Lxtalabel4
.cc_bottom cc_167
.cc_top cc_168,.Lxtalabel4
	.ascii	"/Users/cwu/Desktop/Audio_Sound/module_usb_audio/usb_buffer/usb_buffer.xc"
	.byte	0
	.long	584
	.long	585
	.long	.Lxtalabel4
.cc_bottom cc_168
.cc_top cc_169,.Lxtalabel4
	.ascii	"/Users/cwu/Desktop/Audio_Sound/module_usb_audio/usb_buffer/usb_buffer.xc"
	.byte	0
	.long	726
	.long	726
	.long	.Lxtalabel4
.cc_bottom cc_169
.cc_top cc_170,.Lxtalabel7
	.ascii	"/Users/cwu/Desktop/Audio_Sound/module_usb_audio/usb_buffer/usb_buffer.xc"
	.byte	0
	.long	727
	.long	732
	.long	.Lxtalabel7
.cc_bottom cc_170
.cc_top cc_171,.Lxtalabel7
	.ascii	"/Users/cwu/Desktop/Audio_Sound/module_usb_audio/usb_buffer/usb_buffer.xc"
	.byte	0
	.long	941
	.long	941
	.long	.Lxtalabel7
.cc_bottom cc_171
.cc_top cc_172,.Lxtalabel0
	.ascii	"/Users/cwu/Desktop/Audio_Sound/module_xud/include/xud.h"
	.byte	0
	.long	454
	.long	458
	.long	.Lxtalabel0
.cc_bottom cc_172
.cc_top cc_173,.Lxtalabel7
	.ascii	"/Users/cwu/Desktop/Audio_Sound/module_xud/include/xud.h"
	.byte	0
	.long	454
	.long	458
	.long	.Lxtalabel7
.cc_bottom cc_173
.cc_top cc_174,.Lxtalabel7
	.ascii	"/Users/cwu/Desktop/Audio_Sound/module_xud/include/xud.h"
	.byte	0
	.long	460
	.long	460
	.long	.Lxtalabel7
.cc_bottom cc_174
.cc_top cc_175,.Lxtalabel0
	.ascii	"/Users/cwu/Desktop/Audio_Sound/module_xud/include/xud.h"
	.byte	0
	.long	460
	.long	460
	.long	.Lxtalabel0
.cc_bottom cc_175
.cc_top cc_176,.Lxtalabel0
	.ascii	"/Users/cwu/Desktop/Audio_Sound/module_xud/include/xud.h"
	.byte	0
	.long	463
	.long	464
	.long	.Lxtalabel0
.cc_bottom cc_176
.cc_top cc_177,.Lxtalabel7
	.ascii	"/Users/cwu/Desktop/Audio_Sound/module_xud/include/xud.h"
	.byte	0
	.long	463
	.long	464
	.long	.Lxtalabel7
.cc_bottom cc_177
.cc_top cc_178,.Lxtalabel7
	.ascii	"/Users/cwu/Desktop/Audio_Sound/module_xud/include/xud.h"
	.byte	0
	.long	465
	.long	467
	.long	.Lxtalabel7
.cc_bottom cc_178
.cc_top cc_179,.Lxtalabel0
	.ascii	"/Users/cwu/Desktop/Audio_Sound/module_xud/include/xud.h"
	.byte	0
	.long	465
	.long	467
	.long	.Lxtalabel0
.cc_bottom cc_179
.cc_top cc_180,.Lxtalabel8
	.ascii	"/Users/cwu/Desktop/Audio_Sound/module_xud/include/xud.h"
	.byte	0
	.long	470
	.long	471
	.long	.Lxtalabel8
.cc_bottom cc_180
.cc_top cc_181,.Lxtalabel1
	.ascii	"/Users/cwu/Desktop/Audio_Sound/module_xud/include/xud.h"
	.byte	0
	.long	470
	.long	471
	.long	.Lxtalabel1
.cc_bottom cc_181
.cc_top cc_182,.Lxtalabel1
	.ascii	"/Users/cwu/Desktop/Audio_Sound/module_xud/include/xud.h"
	.byte	0
	.long	473
	.long	473
	.long	.Lxtalabel1
.cc_bottom cc_182
.cc_top cc_183,.Lxtalabel8
	.ascii	"/Users/cwu/Desktop/Audio_Sound/module_xud/include/xud.h"
	.byte	0
	.long	473
	.long	473
	.long	.Lxtalabel8
.cc_bottom cc_183
.cc_top cc_184,.Lxtalabel8
	.ascii	"/Users/cwu/Desktop/Audio_Sound/module_xud/include/xud.h"
	.byte	0
	.long	475
	.long	475
	.long	.Lxtalabel8
.cc_bottom cc_184
.cc_top cc_185,.Lxtalabel1
	.ascii	"/Users/cwu/Desktop/Audio_Sound/module_xud/include/xud.h"
	.byte	0
	.long	475
	.long	475
	.long	.Lxtalabel1
.cc_bottom cc_185
.cc_top cc_186,.Lxtalabel8
	.ascii	"/Users/cwu/Desktop/Audio_Sound/module_xud/include/xud.h"
	.byte	0
	.long	478
	.long	478
	.long	.Lxtalabel8
.cc_bottom cc_186
.cc_top cc_187,.Lxtalabel1
	.ascii	"/Users/cwu/Desktop/Audio_Sound/module_xud/include/xud.h"
	.byte	0
	.long	478
	.long	478
	.long	.Lxtalabel1
.cc_bottom cc_187
.cc_top cc_188,.Lxtalabel8
	.ascii	"/Users/cwu/Desktop/Audio_Sound/module_xud/include/xud.h"
	.byte	0
	.long	480
	.long	480
	.long	.Lxtalabel8
.cc_bottom cc_188
.cc_top cc_189,.Lxtalabel1
	.ascii	"/Users/cwu/Desktop/Audio_Sound/module_xud/include/xud.h"
	.byte	0
	.long	480
	.long	480
	.long	.Lxtalabel1
.cc_bottom cc_189
.cc_top cc_190,.Lxtalabel1
	.ascii	"/Users/cwu/Desktop/Audio_Sound/module_xud/include/xud.h"
	.byte	0
	.long	483
	.long	483
	.long	.Lxtalabel1
.cc_bottom cc_190
.cc_top cc_191,.Lxtalabel8
	.ascii	"/Users/cwu/Desktop/Audio_Sound/module_xud/include/xud.h"
	.byte	0
	.long	483
	.long	483
	.long	.Lxtalabel8
.cc_bottom cc_191
.cc_top cc_192,.Lxtalabel8
	.ascii	"/Users/cwu/Desktop/Audio_Sound/module_xud/include/xud.h"
	.byte	0
	.long	486
	.long	486
	.long	.Lxtalabel8
.cc_bottom cc_192
.cc_top cc_193,.Lxtalabel1
	.ascii	"/Users/cwu/Desktop/Audio_Sound/module_xud/include/xud.h"
	.byte	0
	.long	486
	.long	486
	.long	.Lxtalabel1
.cc_bottom cc_193
.cc_top cc_194,.Lxtalabel8
	.ascii	"/Users/cwu/Desktop/Audio_Sound/module_xud/include/xud.h"
	.byte	0
	.long	489
	.long	489
	.long	.Lxtalabel8
.cc_bottom cc_194
.cc_top cc_195,.Lxtalabel1
	.ascii	"/Users/cwu/Desktop/Audio_Sound/module_xud/include/xud.h"
	.byte	0
	.long	489
	.long	489
	.long	.Lxtalabel1
.cc_bottom cc_195
.cc_top cc_196,.Lxtalabel1
	.ascii	"/Users/cwu/Desktop/Audio_Sound/module_xud/include/xud.h"
	.byte	0
	.long	491
	.long	491
	.long	.Lxtalabel1
.cc_bottom cc_196
.cc_top cc_197,.Lxtalabel8
	.ascii	"/Users/cwu/Desktop/Audio_Sound/module_xud/include/xud.h"
	.byte	0
	.long	491
	.long	491
	.long	.Lxtalabel8
.cc_bottom cc_197
.cc_top cc_198,.Lxtalabel1
	.ascii	"/Users/cwu/Desktop/Audio_Sound/module_xud/include/xud.h"
	.byte	0
	.long	493
	.long	494
	.long	.Lxtalabel1
.cc_bottom cc_198
.cc_top cc_199,.Lxtalabel8
	.ascii	"/Users/cwu/Desktop/Audio_Sound/module_xud/include/xud.h"
	.byte	0
	.long	493
	.long	494
	.long	.Lxtalabel8
.cc_bottom cc_199
.cc_top cc_200,.Lxtalabel0
	.ascii	"/Users/cwu/Desktop/Audio_Sound/module_xud/include/xud.h"
	.byte	0
	.long	505
	.long	506
	.long	.Lxtalabel0
.cc_bottom cc_200
.cc_top cc_201,.Lxtalabel7
	.ascii	"/Users/cwu/Desktop/Audio_Sound/module_xud/include/xud.h"
	.byte	0
	.long	505
	.long	506
	.long	.Lxtalabel7
.cc_bottom cc_201
.cc_top cc_202,.Lxtalabel0
	.ascii	"/Users/cwu/Desktop/Audio_Sound/module_xud/include/xud.h"
	.byte	0
	.long	508
	.long	508
	.long	.Lxtalabel0
.cc_bottom cc_202
.cc_top cc_203,.Lxtalabel7
	.ascii	"/Users/cwu/Desktop/Audio_Sound/module_xud/include/xud.h"
	.byte	0
	.long	508
	.long	508
	.long	.Lxtalabel7
.cc_bottom cc_203
.cc_top cc_204,.Lxtalabel0
	.ascii	"/Users/cwu/Desktop/Audio_Sound/module_xud/include/xud.h"
	.byte	0
	.long	510
	.long	511
	.long	.Lxtalabel0
.cc_bottom cc_204
.cc_top cc_205,.Lxtalabel7
	.ascii	"/Users/cwu/Desktop/Audio_Sound/module_xud/include/xud.h"
	.byte	0
	.long	510
	.long	511
	.long	.Lxtalabel7
.cc_bottom cc_205
.Lentries_end5:
	.section	.trap_info,"",@progbits
.Ltrap_info_entries_start0:
	.long	.Ltrap_info_entries_end0-.Ltrap_info_entries_start0
	.long	1
.Ltrap_info_entries_end0: